
/home/hdj/amb82-mini-RTL8735B/sdk-ameba-v9.6b/project/realtek_amebapro2_v0_example/GCC-RELEASE/build/bootloader/bootloader:     file format elf32-littlearm


Disassembly of section .ram.code_text:

00020ec0 <RamImgSignature>:
   20ec0:	41 6d 65 62 61 50 72 6f 32 ff 00 00                 AmebaPro2...

00020ecc <dcache_clean_invalidate_by_addr.constprop.0>:
   20ecc:	b508      	push	{r3, lr}
   20ece:	4b03      	ldr	r3, [pc, #12]	; (20edc <dcache_clean_invalidate_by_addr.constprop.0+0x10>)
   20ed0:	f44f 61c0 	mov.w	r1, #1536	; 0x600
   20ed4:	6a9b      	ldr	r3, [r3, #40]	; 0x28
   20ed6:	4798      	blx	r3
   20ed8:	bd08      	pop	{r3, pc}
   20eda:	bf00      	nop
   20edc:	10000a60 	.word	0x10000a60

00020ee0 <video_boot_malloc>:
   20ee0:	06c3      	lsls	r3, r0, #27
   20ee2:	4b03      	ldr	r3, [pc, #12]	; (20ef0 <video_boot_malloc+0x10>)
   20ee4:	bf1c      	itt	ne
   20ee6:	f020 001f 	bicne.w	r0, r0, #31
   20eea:	3020      	addne	r0, #32
   20eec:	1a18      	subs	r0, r3, r0
   20eee:	4770      	bx	lr
   20ef0:	76e00000 	.word	0x76e00000

00020ef4 <video_boot_set_private_mask>:
   20ef4:	e92d 47f0 	stmdb	sp!, {r4, r5, r6, r7, r8, r9, sl, lr}
   20ef8:	460c      	mov	r4, r1
   20efa:	f8df 9144 	ldr.w	r9, [pc, #324]	; 21040 <video_boot_set_private_mask+0x14c>
   20efe:	2500      	movs	r5, #0
   20f00:	4946      	ldr	r1, [pc, #280]	; (2101c <video_boot_set_private_mask+0x128>)
   20f02:	f8d9 2080 	ldr.w	r2, [r9, #128]	; 0x80
   20f06:	b08a      	sub	sp, #40	; 0x28
   20f08:	4682      	mov	sl, r0
   20f0a:	f104 0808 	add.w	r8, r4, #8
   20f0e:	4e44      	ldr	r6, [pc, #272]	; (21020 <video_boot_set_private_mask+0x12c>)
   20f10:	4f44      	ldr	r7, [pc, #272]	; (21024 <video_boot_set_private_mask+0x130>)
   20f12:	6055      	str	r5, [r2, #4]
   20f14:	6011      	str	r1, [r2, #0]
   20f16:	e9c2 552e 	strd	r5, r5, [r2, #184]	; 0xb8
   20f1a:	e9c2 5530 	strd	r5, r5, [r2, #192]	; 0xc0
   20f1e:	f858 cb04 	ldr.w	ip, [r8], #4
   20f22:	f1bc 0f00 	cmp.w	ip, #0
   20f26:	d025      	beq.n	20f74 <video_boot_set_private_mask+0x80>
   20f28:	2d00      	cmp	r5, #0
   20f2a:	d15c      	bne.n	20fe6 <video_boot_set_private_mask+0xf2>
   20f2c:	7833      	ldrb	r3, [r6, #0]
   20f2e:	b113      	cbz	r3, 20f36 <video_boot_set_private_mask+0x42>
   20f30:	69fb      	ldr	r3, [r7, #28]
   20f32:	483d      	ldr	r0, [pc, #244]	; (21028 <video_boot_set_private_mask+0x134>)
   20f34:	4798      	blx	r3
   20f36:	69e0      	ldr	r0, [r4, #28]
   20f38:	07c1      	lsls	r1, r0, #31
   20f3a:	d507      	bpl.n	20f4c <video_boot_set_private_mask+0x58>
   20f3c:	7833      	ldrb	r3, [r6, #0]
   20f3e:	b1cb      	cbz	r3, 20f74 <video_boot_set_private_mask+0x80>
   20f40:	69fb      	ldr	r3, [r7, #28]
   20f42:	f104 021c 	add.w	r2, r4, #28
   20f46:	4939      	ldr	r1, [pc, #228]	; (2102c <video_boot_set_private_mask+0x138>)
   20f48:	4839      	ldr	r0, [pc, #228]	; (21030 <video_boot_set_private_mask+0x13c>)
   20f4a:	e012      	b.n	20f72 <video_boot_set_private_mask+0x7e>
   20f4c:	6b23      	ldr	r3, [r4, #48]	; 0x30
   20f4e:	07da      	lsls	r2, r3, #31
   20f50:	d507      	bpl.n	20f62 <video_boot_set_private_mask+0x6e>
   20f52:	7833      	ldrb	r3, [r6, #0]
   20f54:	b173      	cbz	r3, 20f74 <video_boot_set_private_mask+0x80>
   20f56:	69fb      	ldr	r3, [r7, #28]
   20f58:	f104 0230 	add.w	r2, r4, #48	; 0x30
   20f5c:	4933      	ldr	r1, [pc, #204]	; (2102c <video_boot_set_private_mask+0x138>)
   20f5e:	4835      	ldr	r0, [pc, #212]	; (21034 <video_boot_set_private_mask+0x140>)
   20f60:	e007      	b.n	20f72 <video_boot_set_private_mask+0x7e>
   20f62:	6ee2      	ldr	r2, [r4, #108]	; 0x6c
   20f64:	0751      	lsls	r1, r2, #29
   20f66:	d014      	beq.n	20f92 <video_boot_set_private_mask+0x9e>
   20f68:	7833      	ldrb	r3, [r6, #0]
   20f6a:	b11b      	cbz	r3, 20f74 <video_boot_set_private_mask+0x80>
   20f6c:	69fb      	ldr	r3, [r7, #28]
   20f6e:	492f      	ldr	r1, [pc, #188]	; (2102c <video_boot_set_private_mask+0x138>)
   20f70:	4831      	ldr	r0, [pc, #196]	; (21038 <video_boot_set_private_mask+0x144>)
   20f72:	4798      	blx	r3
   20f74:	3501      	adds	r5, #1
   20f76:	2d05      	cmp	r5, #5
   20f78:	d1d1      	bne.n	20f1e <video_boot_set_private_mask+0x2a>
   20f7a:	eb09 098a 	add.w	r9, r9, sl, lsl #2
   20f7e:	2301      	movs	r3, #1
   20f80:	f8d9 0004 	ldr.w	r0, [r9, #4]
   20f84:	f8c0 3524 	str.w	r3, [r0, #1316]	; 0x524
   20f88:	f7ff ffa0 	bl	20ecc <dcache_clean_invalidate_by_addr.constprop.0>
   20f8c:	b00a      	add	sp, #40	; 0x28
   20f8e:	e8bd 87f0 	ldmia.w	sp!, {r4, r5, r6, r7, r8, r9, sl, pc}
   20f92:	f8d4 c044 	ldr.w	ip, [r4, #68]	; 0x44
   20f96:	f01c 0f0f 	tst.w	ip, #15
   20f9a:	fbbc f1f2 	udiv	r1, ip, r2
   20f9e:	d00a      	beq.n	20fb6 <video_boot_set_private_mask+0xc2>
   20fa0:	f011 0f01 	tst.w	r1, #1
   20fa4:	d007      	beq.n	20fb6 <video_boot_set_private_mask+0xc2>
   20fa6:	7833      	ldrb	r3, [r6, #0]
   20fa8:	2b00      	cmp	r3, #0
   20faa:	d0e3      	beq.n	20f74 <video_boot_set_private_mask+0x80>
   20fac:	460a      	mov	r2, r1
   20fae:	69fb      	ldr	r3, [r7, #28]
   20fb0:	491e      	ldr	r1, [pc, #120]	; (2102c <video_boot_set_private_mask+0x138>)
   20fb2:	4822      	ldr	r0, [pc, #136]	; (2103c <video_boot_set_private_mask+0x148>)
   20fb4:	e7dd      	b.n	20f72 <video_boot_set_private_mask+0x7e>
   20fb6:	e9cd 0304 	strd	r0, r3, [sp, #16]
   20fba:	6f20      	ldr	r0, [r4, #112]	; 0x70
   20fbc:	6da3      	ldr	r3, [r4, #88]	; 0x58
   20fbe:	9106      	str	r1, [sp, #24]
   20fc0:	9009      	str	r0, [sp, #36]	; 0x24
   20fc2:	fbb3 f3f0 	udiv	r3, r3, r0
   20fc6:	e9cd 3207 	strd	r3, r2, [sp, #28]
   20fca:	f104 0374 	add.w	r3, r4, #116	; 0x74
   20fce:	9303      	str	r3, [sp, #12]
   20fd0:	ab0a      	add	r3, sp, #40	; 0x28
   20fd2:	e913 0007 	ldmdb	r3, {r0, r1, r2}
   20fd6:	ab04      	add	r3, sp, #16
   20fd8:	e88d 0007 	stmia.w	sp, {r0, r1, r2}
   20fdc:	68a0      	ldr	r0, [r4, #8]
   20fde:	cb0e      	ldmia	r3, {r1, r2, r3}
   20fe0:	f00a fd72 	bl	2bac8 <hal_video_config_grid_mask>
   20fe4:	e7c6      	b.n	20f74 <video_boot_set_private_mask+0x80>
   20fe6:	f8d8 2010 	ldr.w	r2, [r8, #16]
   20fea:	07d0      	lsls	r0, r2, #31
   20fec:	d4a6      	bmi.n	20f3c <video_boot_set_private_mask+0x48>
   20fee:	f8d8 3024 	ldr.w	r3, [r8, #36]	; 0x24
   20ff2:	07d9      	lsls	r1, r3, #31
   20ff4:	d4ad      	bmi.n	20f52 <video_boot_set_private_mask+0x5e>
   20ff6:	f8d8 1038 	ldr.w	r1, [r8, #56]	; 0x38
   20ffa:	4411      	add	r1, r2
   20ffc:	9106      	str	r1, [sp, #24]
   20ffe:	f8d8 104c 	ldr.w	r1, [r8, #76]	; 0x4c
   21002:	9806      	ldr	r0, [sp, #24]
   21004:	4419      	add	r1, r3
   21006:	e88d 0003 	stmia.w	sp, {r0, r1}
   2100a:	9107      	str	r1, [sp, #28]
   2100c:	4660      	mov	r0, ip
   2100e:	1e69      	subs	r1, r5, #1
   21010:	e9cd 2304 	strd	r2, r3, [sp, #16]
   21014:	f00a fda6 	bl	2bb64 <hal_video_config_rect_mask>
   21018:	e7ac      	b.n	20f74 <video_boot_set_private_mask+0x80>
   2101a:	bf00      	nop
   2101c:	00ff0080 	.word	0x00ff0080
   21020:	0001a2b0 	.word	0x0001a2b0
   21024:	100bc800 	.word	0x100bc800
   21028:	20101200 	.word	0x20101200
   2102c:	20101422 	.word	0x20101422
   21030:	2010120f 	.word	0x2010120f
   21034:	20101234 	.word	0x20101234
   21038:	20101259 	.word	0x20101259
   2103c:	2010127b 	.word	0x2010127b
   21040:	00020de0 	.word	0x00020de0

00021044 <video_boot_buf_calc>:
   21044:	b084      	sub	sp, #16
   21046:	b5f0      	push	{r4, r5, r6, r7, lr}
   21048:	ac05      	add	r4, sp, #20
   2104a:	e884 000f 	stmia.w	r4, {r0, r1, r2, r3}
   2104e:	e9dd 3279 	ldrd	r3, r2, [sp, #484]	; 0x1e4
   21052:	9980      	ldr	r1, [sp, #512]	; 0x200
   21054:	9882      	ldr	r0, [sp, #520]	; 0x208
   21056:	2b00      	cmp	r3, #0
   21058:	d05b      	beq.n	21112 <video_boot_buf_calc+0xce>
   2105a:	2a00      	cmp	r2, #0
   2105c:	bf04      	itt	eq
   2105e:	f44f 6320 	moveq.w	r3, #2560	; 0xa00
   21062:	f44f 62b4 	moveq.w	r2, #1440	; 0x5a0
   21066:	4353      	muls	r3, r2
   21068:	eb03 0343 	add.w	r3, r3, r3, lsl #1
   2106c:	eb03 73d3 	add.w	r3, r3, r3, lsr #31
   21070:	eb00 0063 	add.w	r0, r0, r3, asr #1
   21074:	9b7d      	ldr	r3, [sp, #500]	; 0x1f4
   21076:	b113      	cbz	r3, 2107e <video_boot_buf_calc+0x3a>
   21078:	2900      	cmp	r1, #0
   2107a:	d04f      	beq.n	2111c <video_boot_buf_calc+0xd8>
   2107c:	4408      	add	r0, r1
   2107e:	9b7e      	ldr	r3, [sp, #504]	; 0x1f8
   21080:	b10b      	cbz	r3, 21086 <video_boot_buf_calc+0x42>
   21082:	f500 20fa 	add.w	r0, r0, #512000	; 0x7d000
   21086:	f8dd c1f0 	ldr.w	ip, [sp, #496]	; 0x1f0
   2108a:	af83      	add	r7, sp, #524	; 0x20c
   2108c:	a905      	add	r1, sp, #20
   2108e:	4e25      	ldr	r6, [pc, #148]	; (21124 <video_boot_buf_calc+0xe0>)
   21090:	2500      	movs	r5, #0
   21092:	f817 3b01 	ldrb.w	r3, [r7], #1
   21096:	b303      	cbz	r3, 210da <video_boot_buf_calc+0x96>
   21098:	f500 10d0 	add.w	r0, r0, #1703936	; 0x1a0000
   2109c:	e9d1 2303 	ldrd	r2, r3, [r1, #12]
   210a0:	f500 5080 	add.w	r0, r0, #4096	; 0x1000
   210a4:	435a      	muls	r2, r3
   210a6:	694b      	ldr	r3, [r1, #20]
   210a8:	eb02 0442 	add.w	r4, r2, r2, lsl #1
   210ac:	f023 4360 	bic.w	r3, r3, #3758096384	; 0xe0000000
   210b0:	f024 0e01 	bic.w	lr, r4, #1
   210b4:	eb03 03d2 	add.w	r3, r3, r2, lsr #3
   210b8:	eb0e 1212 	add.w	r2, lr, r2, lsr #4
   210bc:	4418      	add	r0, r3
   210be:	62f3      	str	r3, [r6, #44]	; 0x2c
   210c0:	78fb      	ldrb	r3, [r7, #3]
   210c2:	eb00 0042 	add.w	r0, r0, r2, lsl #1
   210c6:	b11b      	cbz	r3, 210d0 <video_boot_buf_calc+0x8c>
   210c8:	eb00 0054 	add.w	r0, r0, r4, lsr #1
   210cc:	f500 2096 	add.w	r0, r0, #307200	; 0x4b000
   210d0:	f1bc 0f00 	cmp.w	ip, #0
   210d4:	d001      	beq.n	210da <video_boot_buf_calc+0x96>
   210d6:	f500 40aa 	add.w	r0, r0, #21760	; 0x5500
   210da:	3501      	adds	r5, #1
   210dc:	316c      	adds	r1, #108	; 0x6c
   210de:	366c      	adds	r6, #108	; 0x6c
   210e0:	2d03      	cmp	r5, #3
   210e2:	d1d6      	bne.n	21092 <video_boot_buf_calc+0x4e>
   210e4:	f89d 320f 	ldrb.w	r3, [sp, #527]	; 0x20f
   210e8:	b14b      	cbz	r3, 210fe <video_boot_buf_calc+0xba>
   210ea:	e9dd 3259 	ldrd	r3, r2, [sp, #356]	; 0x164
   210ee:	4353      	muls	r3, r2
   210f0:	2206      	movs	r2, #6
   210f2:	fb02 0003 	mla	r0, r2, r3, r0
   210f6:	f500 203b 	add.w	r0, r0, #765952	; 0xbb000
   210fa:	f500 6000 	add.w	r0, r0, #2048	; 0x800
   210fe:	06c3      	lsls	r3, r0, #27
   21100:	e8bd 40f0 	ldmia.w	sp!, {r4, r5, r6, r7, lr}
   21104:	bf18      	it	ne
   21106:	f020 001f 	bicne.w	r0, r0, #31
   2110a:	b004      	add	sp, #16
   2110c:	bf18      	it	ne
   2110e:	3020      	addne	r0, #32
   21110:	4770      	bx	lr
   21112:	f44f 62b4 	mov.w	r2, #1440	; 0x5a0
   21116:	f44f 6320 	mov.w	r3, #2560	; 0xa00
   2111a:	e7a4      	b.n	21066 <video_boot_buf_calc+0x22>
   2111c:	f500 20fa 	add.w	r0, r0, #512000	; 0x7d000
   21120:	e7ad      	b.n	2107e <video_boot_buf_calc+0x3a>
   21122:	bf00      	nop
   21124:	00020304 	.word	0x00020304

00021128 <video_boot_open>:
   21128:	e92d 4ff0 	stmdb	sp!, {r4, r5, r6, r7, r8, r9, sl, fp, lr}
   2112c:	6806      	ldr	r6, [r0, #0]
   2112e:	4605      	mov	r5, r0
   21130:	48ba      	ldr	r0, [pc, #744]	; (2141c <video_boot_open+0x2f4>)
   21132:	b08b      	sub	sp, #44	; 0x2c
   21134:	f8d0 31d8 	ldr.w	r3, [r0, #472]	; 0x1d8
   21138:	9304      	str	r3, [sp, #16]
   2113a:	236c      	movs	r3, #108	; 0x6c
   2113c:	fb03 0306 	mla	r3, r3, r6, r0
   21140:	68d9      	ldr	r1, [r3, #12]
   21142:	f101 0b0f 	add.w	fp, r1, #15
   21146:	f02b 020f 	bic.w	r2, fp, #15
   2114a:	9202      	str	r2, [sp, #8]
   2114c:	691a      	ldr	r2, [r3, #16]
   2114e:	9b02      	ldr	r3, [sp, #8]
   21150:	1a5b      	subs	r3, r3, r1
   21152:	eb03 73d3 	add.w	r3, r3, r3, lsr #31
   21156:	105b      	asrs	r3, r3, #1
   21158:	9305      	str	r3, [sp, #20]
   2115a:	9b02      	ldr	r3, [sp, #8]
   2115c:	4353      	muls	r3, r2
   2115e:	bf48      	it	mi
   21160:	3307      	addmi	r3, #7
   21162:	2e02      	cmp	r6, #2
   21164:	ea4f 09e3 	mov.w	r9, r3, asr #3
   21168:	bf97      	itett	ls
   2116a:	696b      	ldrls	r3, [r5, #20]
   2116c:	2300      	movhi	r3, #0
   2116e:	f023 4360 	bicls.w	r3, r3, #3758096384	; 0xe0000000
   21172:	444b      	addls	r3, r9
   21174:	9303      	str	r3, [sp, #12]
   21176:	236c      	movs	r3, #108	; 0x6c
   21178:	fb03 0306 	mla	r3, r3, r6, r0
   2117c:	695c      	ldr	r4, [r3, #20]
   2117e:	6a1f      	ldr	r7, [r3, #32]
   21180:	9401      	str	r4, [sp, #4]
   21182:	2f00      	cmp	r7, #0
   21184:	f000 819d 	beq.w	214c2 <video_boot_open+0x39a>
   21188:	f1b7 0b01 	subs.w	fp, r7, #1
   2118c:	f000 819d 	beq.w	214ca <video_boot_open+0x3a2>
   21190:	0863      	lsrs	r3, r4, #1
   21192:	2719      	movs	r7, #25
   21194:	9301      	str	r3, [sp, #4]
   21196:	2330      	movs	r3, #48	; 0x30
   21198:	f04f 086c 	mov.w	r8, #108	; 0x6c
   2119c:	fb08 0806 	mla	r8, r8, r6, r0
   211a0:	f8d8 0060 	ldr.w	r0, [r8, #96]	; 0x60
   211a4:	1e44      	subs	r4, r0, #1
   211a6:	2c32      	cmp	r4, #50	; 0x32
   211a8:	bf98      	it	ls
   211aa:	4607      	movls	r7, r0
   211ac:	f8d8 0064 	ldr.w	r0, [r8, #100]	; 0x64
   211b0:	4c9a      	ldr	r4, [pc, #616]	; (2141c <video_boot_open+0x2f4>)
   211b2:	f100 3cff 	add.w	ip, r0, #4294967295	; 0xffffffff
   211b6:	f1bc 0f32 	cmp.w	ip, #50	; 0x32
   211ba:	bf98      	it	ls
   211bc:	4603      	movls	r3, r0
   211be:	e9cd 1208 	strd	r1, r2, [sp, #32]
   211c2:	9307      	str	r3, [sp, #28]
   211c4:	f00a fbee 	bl	2b9a4 <hal_video_get_adp>
   211c8:	00b3      	lsls	r3, r6, #2
   211ca:	9a09      	ldr	r2, [sp, #36]	; 0x24
   211cc:	eb00 0a86 	add.w	sl, r0, r6, lsl #2
   211d0:	9908      	ldr	r1, [sp, #32]
   211d2:	9306      	str	r3, [sp, #24]
   211d4:	f8da c004 	ldr.w	ip, [sl, #4]
   211d8:	9b02      	ldr	r3, [sp, #8]
   211da:	f8cc 2028 	str.w	r2, [ip, #40]	; 0x28
   211de:	f8cc 3024 	str.w	r3, [ip, #36]	; 0x24
   211e2:	9b05      	ldr	r3, [sp, #20]
   211e4:	f8cc 71bc 	str.w	r7, [ip, #444]	; 0x1bc
   211e8:	f8cc 32ec 	str.w	r3, [ip, #748]	; 0x2ec
   211ec:	9b04      	ldr	r3, [sp, #16]
   211ee:	f8cc b1b4 	str.w	fp, [ip, #436]	; 0x1b4
   211f2:	e9cc 1207 	strd	r1, r2, [ip, #28]
   211f6:	f8d8 2018 	ldr.w	r2, [r8, #24]
   211fa:	2103      	movs	r1, #3
   211fc:	f8cc 300c 	str.w	r3, [ip, #12]
   21200:	f8cc 2004 	str.w	r2, [ip, #4]
   21204:	9b01      	ldr	r3, [sp, #4]
   21206:	f8d8 201c 	ldr.w	r2, [r8, #28]
   2120a:	f8cc 31cc 	str.w	r3, [ip, #460]	; 0x1cc
   2120e:	f8cc 21b0 	str.w	r2, [ip, #432]	; 0x1b0
   21212:	9b07      	ldr	r3, [sp, #28]
   21214:	f8d8 2028 	ldr.w	r2, [r8, #40]	; 0x28
   21218:	f8cc 31c0 	str.w	r3, [ip, #448]	; 0x1c0
   2121c:	2301      	movs	r3, #1
   2121e:	f8cc 22e8 	str.w	r2, [ip, #744]	; 0x2e8
   21222:	686a      	ldr	r2, [r5, #4]
   21224:	f8cc 34c0 	str.w	r3, [ip, #1216]	; 0x4c0
   21228:	429a      	cmp	r2, r3
   2122a:	f8cc 2000 	str.w	r2, [ip]
   2122e:	f8cc 1034 	str.w	r1, [ip, #52]	; 0x34
   21232:	f040 814d 	bne.w	214d0 <video_boot_open+0x3a8>
   21236:	2108      	movs	r1, #8
   21238:	f04f 0e40 	mov.w	lr, #64	; 0x40
   2123c:	f04f 0810 	mov.w	r8, #16
   21240:	2702      	movs	r7, #2
   21242:	2300      	movs	r3, #0
   21244:	e9cc e113 	strd	lr, r1, [ip, #76]	; 0x4c
   21248:	2104      	movs	r1, #4
   2124a:	f88c 3030 	strb.w	r3, [ip, #48]	; 0x30
   2124e:	e9cc 8115 	strd	r8, r1, [ip, #84]	; 0x54
   21252:	e9cc 7117 	strd	r7, r1, [ip, #92]	; 0x5c
   21256:	21b4      	movs	r1, #180	; 0xb4
   21258:	f8cc 123c 	str.w	r1, [ip, #572]	; 0x23c
   2125c:	f8cc 3234 	str.w	r3, [ip, #564]	; 0x234
   21260:	2300      	movs	r3, #0
   21262:	2101      	movs	r1, #1
   21264:	f8cc 3044 	str.w	r3, [ip, #68]	; 0x44
   21268:	682b      	ldr	r3, [r5, #0]
   2126a:	f8cc 1328 	str.w	r1, [ip, #808]	; 0x328
   2126e:	f8cc 34a0 	str.w	r3, [ip, #1184]	; 0x4a0
   21272:	f8d4 31dc 	ldr.w	r3, [r4, #476]	; 0x1dc
   21276:	b10b      	cbz	r3, 2127c <video_boot_open+0x154>
   21278:	f8cc 1490 	str.w	r1, [ip, #1168]	; 0x490
   2127c:	19a3      	adds	r3, r4, r6
   2127e:	f893 31fc 	ldrb.w	r3, [r3, #508]	; 0x1fc
   21282:	b17b      	cbz	r3, 212a4 <video_boot_open+0x17c>
   21284:	2301      	movs	r3, #1
   21286:	f042 0204 	orr.w	r2, r2, #4
   2128a:	f8cc 94b8 	str.w	r9, [ip, #1208]	; 0x4b8
   2128e:	f8cc 3038 	str.w	r3, [ip, #56]	; 0x38
   21292:	eb09 0349 	add.w	r3, r9, r9, lsl #1
   21296:	f8cc 2000 	str.w	r2, [ip]
   2129a:	f8cc 34b4 	str.w	r3, [ip, #1204]	; 0x4b4
   2129e:	6a6b      	ldr	r3, [r5, #36]	; 0x24
   212a0:	f8cc 3470 	str.w	r3, [ip, #1136]	; 0x470
   212a4:	f8d4 33b4 	ldr.w	r3, [r4, #948]	; 0x3b4
   212a8:	2b01      	cmp	r3, #1
   212aa:	d106      	bne.n	212ba <video_boot_open+0x192>
   212ac:	b12e      	cbz	r6, 212ba <video_boot_open+0x192>
   212ae:	6840      	ldr	r0, [r0, #4]
   212b0:	2300      	movs	r3, #0
   212b2:	f8c0 34c0 	str.w	r3, [r0, #1216]	; 0x4c0
   212b6:	f7ff fe09 	bl	20ecc <dcache_clean_invalidate_by_addr.constprop.0>
   212ba:	f8da 3004 	ldr.w	r3, [sl, #4]
   212be:	9a03      	ldr	r2, [sp, #12]
   212c0:	f8c3 94ac 	str.w	r9, [r3, #1196]	; 0x4ac
   212c4:	f8c3 24a8 	str.w	r2, [r3, #1192]	; 0x4a8
   212c8:	2202      	movs	r2, #2
   212ca:	f8c3 24b0 	str.w	r2, [r3, #1200]	; 0x4b0
   212ce:	f8d4 23c4 	ldr.w	r2, [r4, #964]	; 0x3c4
   212d2:	b172      	cbz	r2, 212f2 <video_boot_open+0x1ca>
   212d4:	2201      	movs	r2, #1
   212d6:	f8c3 24d4 	str.w	r2, [r3, #1236]	; 0x4d4
   212da:	f8c3 2514 	str.w	r2, [r3, #1300]	; 0x514
   212de:	f8c3 2508 	str.w	r2, [r3, #1288]	; 0x508
   212e2:	f8d4 23c8 	ldr.w	r2, [r4, #968]	; 0x3c8
   212e6:	f8c3 24dc 	str.w	r2, [r3, #1244]	; 0x4dc
   212ea:	f8d4 23cc 	ldr.w	r2, [r4, #972]	; 0x3cc
   212ee:	f8c3 24d8 	str.w	r2, [r3, #1240]	; 0x4d8
   212f2:	f8d4 23d0 	ldr.w	r2, [r4, #976]	; 0x3d0
   212f6:	b162      	cbz	r2, 21312 <video_boot_open+0x1ea>
   212f8:	2201      	movs	r2, #1
   212fa:	f8c3 24e0 	str.w	r2, [r3, #1248]	; 0x4e0
   212fe:	f8c3 2514 	str.w	r2, [r3, #1300]	; 0x514
   21302:	f8d4 23d4 	ldr.w	r2, [r4, #980]	; 0x3d4
   21306:	f8c3 24e4 	str.w	r2, [r3, #1252]	; 0x4e4
   2130a:	f8d4 23d8 	ldr.w	r2, [r4, #984]	; 0x3d8
   2130e:	f8c3 24e8 	str.w	r2, [r3, #1256]	; 0x4e8
   21312:	f8d4 23dc 	ldr.w	r2, [r4, #988]	; 0x3dc
   21316:	b122      	cbz	r2, 21322 <video_boot_open+0x1fa>
   21318:	2101      	movs	r1, #1
   2131a:	f8c3 250c 	str.w	r2, [r3, #1292]	; 0x50c
   2131e:	f8c3 1514 	str.w	r1, [r3, #1300]	; 0x514
   21322:	f8d4 23e0 	ldr.w	r2, [r4, #992]	; 0x3e0
   21326:	b122      	cbz	r2, 21332 <video_boot_open+0x20a>
   21328:	2101      	movs	r1, #1
   2132a:	f8c3 2510 	str.w	r2, [r3, #1296]	; 0x510
   2132e:	f8c3 1514 	str.w	r1, [r3, #1300]	; 0x514
   21332:	19a2      	adds	r2, r4, r6
   21334:	f892 2200 	ldrb.w	r2, [r2, #512]	; 0x200
   21338:	b122      	cbz	r2, 21344 <video_boot_open+0x21c>
   2133a:	2101      	movs	r1, #1
   2133c:	f8c3 2504 	str.w	r2, [r3, #1284]	; 0x504
   21340:	f8c3 1514 	str.w	r1, [r3, #1300]	; 0x514
   21344:	6c2a      	ldr	r2, [r5, #64]	; 0x40
   21346:	b16a      	cbz	r2, 21364 <video_boot_open+0x23c>
   21348:	6c6a      	ldr	r2, [r5, #68]	; 0x44
   2134a:	6ce9      	ldr	r1, [r5, #76]	; 0x4c
   2134c:	6ca8      	ldr	r0, [r5, #72]	; 0x48
   2134e:	1a89      	subs	r1, r1, r2
   21350:	f8c3 24c4 	str.w	r2, [r3, #1220]	; 0x4c4
   21354:	6d2a      	ldr	r2, [r5, #80]	; 0x50
   21356:	f8c3 04c8 	str.w	r0, [r3, #1224]	; 0x4c8
   2135a:	1a12      	subs	r2, r2, r0
   2135c:	f8c3 14cc 	str.w	r1, [r3, #1228]	; 0x4cc
   21360:	f8c3 24d0 	str.w	r2, [r3, #1232]	; 0x4d0
   21364:	6d6a      	ldr	r2, [r5, #84]	; 0x54
   21366:	b10a      	cbz	r2, 2136c <video_boot_open+0x244>
   21368:	f8c3 223c 	str.w	r2, [r3, #572]	; 0x23c
   2136c:	6daa      	ldr	r2, [r5, #88]	; 0x58
   2136e:	b10a      	cbz	r2, 21374 <video_boot_open+0x24c>
   21370:	f8c3 2234 	str.w	r2, [r3, #564]	; 0x234
   21374:	6dea      	ldr	r2, [r5, #92]	; 0x5c
   21376:	b10a      	cbz	r2, 2137c <video_boot_open+0x254>
   21378:	2200      	movs	r2, #0
   2137a:	669a      	str	r2, [r3, #104]	; 0x68
   2137c:	f8d4 353c 	ldr.w	r3, [r4, #1340]	; 0x53c
   21380:	b11b      	cbz	r3, 2138a <video_boot_open+0x262>
   21382:	4927      	ldr	r1, [pc, #156]	; (21420 <video_boot_open+0x2f8>)
   21384:	4630      	mov	r0, r6
   21386:	f7ff fdb5 	bl	20ef4 <video_boot_set_private_mask>
   2138a:	f8d4 3650 	ldr.w	r3, [r4, #1616]	; 0x650
   2138e:	2b00      	cmp	r3, #0
   21390:	d03b      	beq.n	2140a <video_boot_open+0x2e2>
   21392:	f8d4 2654 	ldr.w	r2, [r4, #1620]	; 0x654
   21396:	f102 0178 	add.w	r1, r2, #120	; 0x78
   2139a:	2900      	cmp	r1, #0
   2139c:	460b      	mov	r3, r1
   2139e:	bfb8      	it	lt
   213a0:	f102 037b 	addlt.w	r3, r2, #123	; 0x7b
   213a4:	eb01 01a3 	add.w	r1, r1, r3, asr #2
   213a8:	f011 031f 	ands.w	r3, r1, #31
   213ac:	d007      	beq.n	213be <video_boot_open+0x296>
   213ae:	424a      	negs	r2, r1
   213b0:	f002 021f 	and.w	r2, r2, #31
   213b4:	bf58      	it	pl
   213b6:	4253      	negpl	r3, r2
   213b8:	f1c3 0320 	rsb	r3, r3, #32
   213bc:	4419      	add	r1, r3
   213be:	23ff      	movs	r3, #255	; 0xff
   213c0:	2201      	movs	r2, #1
   213c2:	f5b1 5f80 	cmp.w	r1, #4096	; 0x1000
   213c6:	f8c4 1684 	str.w	r1, [r4, #1668]	; 0x684
   213ca:	fb91 f3f3 	sdiv	r3, r1, r3
   213ce:	f8c4 3680 	str.w	r3, [r4, #1664]	; 0x680
   213d2:	f8da 3004 	ldr.w	r3, [sl, #4]
   213d6:	f8c3 2520 	str.w	r2, [r3, #1312]	; 0x520
   213da:	f8c3 1324 	str.w	r1, [r3, #804]	; 0x324
   213de:	d914      	bls.n	2140a <video_boot_open+0x2e2>
   213e0:	4e10      	ldr	r6, [pc, #64]	; (21424 <video_boot_open+0x2fc>)
   213e2:	7833      	ldrb	r3, [r6, #0]
   213e4:	b12b      	cbz	r3, 213f2 <video_boot_open+0x2ca>
   213e6:	4b10      	ldr	r3, [pc, #64]	; (21428 <video_boot_open+0x300>)
   213e8:	f44f 5280 	mov.w	r2, #4096	; 0x1000
   213ec:	480f      	ldr	r0, [pc, #60]	; (2142c <video_boot_open+0x304>)
   213ee:	69db      	ldr	r3, [r3, #28]
   213f0:	4798      	blx	r3
   213f2:	f8da 3004 	ldr.w	r3, [sl, #4]
   213f6:	f44f 5180 	mov.w	r1, #4096	; 0x1000
   213fa:	f8c3 1324 	str.w	r1, [r3, #804]	; 0x324
   213fe:	7833      	ldrb	r3, [r6, #0]
   21400:	b11b      	cbz	r3, 2140a <video_boot_open+0x2e2>
   21402:	4b09      	ldr	r3, [pc, #36]	; (21428 <video_boot_open+0x300>)
   21404:	480a      	ldr	r0, [pc, #40]	; (21430 <video_boot_open+0x308>)
   21406:	69db      	ldr	r3, [r3, #28]
   21408:	4798      	blx	r3
   2140a:	4b0a      	ldr	r3, [pc, #40]	; (21434 <video_boot_open+0x30c>)
   2140c:	9a06      	ldr	r2, [sp, #24]
   2140e:	4413      	add	r3, r2
   21410:	6858      	ldr	r0, [r3, #4]
   21412:	f8d4 3658 	ldr.w	r3, [r4, #1624]	; 0x658
   21416:	2b00      	cmp	r3, #0
   21418:	d06d      	beq.n	214f6 <video_boot_open+0x3ce>
   2141a:	e00d      	b.n	21438 <video_boot_open+0x310>
   2141c:	00020304 	.word	0x00020304
   21420:	00020840 	.word	0x00020840
   21424:	0001a2b0 	.word	0x0001a2b0
   21428:	100bc800 	.word	0x100bc800
   2142c:	20101298 	.word	0x20101298
   21430:	201012c3 	.word	0x201012c3
   21434:	00020de0 	.word	0x00020de0
   21438:	f8da 3004 	ldr.w	r3, [sl, #4]
   2143c:	2201      	movs	r2, #1
   2143e:	f8d4 c664 	ldr.w	ip, [r4, #1636]	; 0x664
   21442:	f8c3 2514 	str.w	r2, [r3, #1300]	; 0x514
   21446:	f8d4 7668 	ldr.w	r7, [r4, #1640]	; 0x668
   2144a:	f8d4 2678 	ldr.w	r2, [r4, #1656]	; 0x678
   2144e:	f8d4 367c 	ldr.w	r3, [r4, #1660]	; 0x67c
   21452:	f8d4 e660 	ldr.w	lr, [r4, #1632]	; 0x660
   21456:	f8d4 1674 	ldr.w	r1, [r4, #1652]	; 0x674
   2145a:	f8d4 6670 	ldr.w	r6, [r4, #1648]	; 0x670
   2145e:	f8d4 465c 	ldr.w	r4, [r4, #1628]	; 0x65c
   21462:	f8c0 e52c 	str.w	lr, [r0, #1324]	; 0x52c
   21466:	f8c0 4528 	str.w	r4, [r0, #1320]	; 0x528
   2146a:	f8c0 c530 	str.w	ip, [r0, #1328]	; 0x530
   2146e:	f8c0 7534 	str.w	r7, [r0, #1332]	; 0x534
   21472:	f8c0 6538 	str.w	r6, [r0, #1336]	; 0x538
   21476:	f8c0 153c 	str.w	r1, [r0, #1340]	; 0x53c
   2147a:	f8c0 2540 	str.w	r2, [r0, #1344]	; 0x540
   2147e:	f8c0 3544 	str.w	r3, [r0, #1348]	; 0x544
   21482:	f7ff fd23 	bl	20ecc <dcache_clean_invalidate_by_addr.constprop.0>
   21486:	6eab      	ldr	r3, [r5, #104]	; 0x68
   21488:	f8da 0004 	ldr.w	r0, [sl, #4]
   2148c:	b113      	cbz	r3, 21494 <video_boot_open+0x36c>
   2148e:	2300      	movs	r3, #0
   21490:	f8c0 3410 	str.w	r3, [r0, #1040]	; 0x410
   21494:	2306      	movs	r3, #6
   21496:	f8c0 3230 	str.w	r3, [r0, #560]	; 0x230
   2149a:	f06f 0307 	mvn.w	r3, #7
   2149e:	f8c0 3218 	str.w	r3, [r0, #536]	; 0x218
   214a2:	230f      	movs	r3, #15
   214a4:	f8c0 31f4 	str.w	r3, [r0, #500]	; 0x1f4
   214a8:	2301      	movs	r3, #1
   214aa:	e9c0 337a 	strd	r3, r3, [r0, #488]	; 0x1e8
   214ae:	f04f 33ff 	mov.w	r3, #4294967295	; 0xffffffff
   214b2:	f8c0 31b8 	str.w	r3, [r0, #440]	; 0x1b8
   214b6:	f7ff fd09 	bl	20ecc <dcache_clean_invalidate_by_addr.constprop.0>
   214ba:	2000      	movs	r0, #0
   214bc:	b00b      	add	sp, #44	; 0x2c
   214be:	e8bd 8ff0 	ldmia.w	sp!, {r4, r5, r6, r7, r8, r9, sl, fp, pc}
   214c2:	2333      	movs	r3, #51	; 0x33
   214c4:	f04f 0b01 	mov.w	fp, #1
   214c8:	e666      	b.n	21198 <video_boot_open+0x70>
   214ca:	465f      	mov	r7, fp
   214cc:	2333      	movs	r3, #51	; 0x33
   214ce:	e663      	b.n	21198 <video_boot_open+0x70>
   214d0:	2110      	movs	r1, #16
   214d2:	2708      	movs	r7, #8
   214d4:	f88c 3030 	strb.w	r3, [ip, #48]	; 0x30
   214d8:	f8cc 1054 	str.w	r1, [ip, #84]	; 0x54
   214dc:	e9cc 1713 	strd	r1, r7, [ip, #76]	; 0x4c
   214e0:	2104      	movs	r1, #4
   214e2:	e9cc 1316 	strd	r1, r3, [ip, #88]	; 0x58
   214e6:	2302      	movs	r3, #2
   214e8:	f8cc 3060 	str.w	r3, [ip, #96]	; 0x60
   214ec:	2333      	movs	r3, #51	; 0x33
   214ee:	f8cc 323c 	str.w	r3, [ip, #572]	; 0x23c
   214f2:	230b      	movs	r3, #11
   214f4:	e6b2      	b.n	2125c <video_boot_open+0x134>
   214f6:	f64f 73ff 	movw	r3, #65535	; 0xffff
   214fa:	f8c0 3528 	str.w	r3, [r0, #1320]	; 0x528
   214fe:	f8c0 352c 	str.w	r3, [r0, #1324]	; 0x52c
   21502:	f8c0 3530 	str.w	r3, [r0, #1328]	; 0x530
   21506:	f8c0 3534 	str.w	r3, [r0, #1332]	; 0x534
   2150a:	f8c0 3538 	str.w	r3, [r0, #1336]	; 0x538
   2150e:	f8c0 353c 	str.w	r3, [r0, #1340]	; 0x53c
   21512:	f8c0 3540 	str.w	r3, [r0, #1344]	; 0x540
   21516:	e7b2      	b.n	2147e <video_boot_open+0x356>

00021518 <video_btldr_process>:
   21518:	e92d 47f0 	stmdb	sp!, {r4, r5, r6, r7, r8, r9, sl, lr}
   2151c:	4607      	mov	r7, r0
   2151e:	f5ad 6dcf 	sub.w	sp, sp, #1656	; 0x678
   21522:	b948      	cbnz	r0, 21538 <video_btldr_process+0x20>
   21524:	4b68      	ldr	r3, [pc, #416]	; (216c8 <video_btldr_process+0x1b0>)
   21526:	781b      	ldrb	r3, [r3, #0]
   21528:	b11b      	cbz	r3, 21532 <video_btldr_process+0x1a>
   2152a:	4b68      	ldr	r3, [pc, #416]	; (216cc <video_btldr_process+0x1b4>)
   2152c:	4868      	ldr	r0, [pc, #416]	; (216d0 <video_btldr_process+0x1b8>)
   2152e:	69db      	ldr	r3, [r3, #28]
   21530:	4798      	blx	r3
   21532:	f241 0a03 	movw	sl, #4099	; 0x1003
   21536:	e0ab      	b.n	21690 <video_btldr_process+0x178>
   21538:	68c6      	ldr	r6, [r0, #12]
   2153a:	f8d0 9004 	ldr.w	r9, [r0, #4]
   2153e:	7833      	ldrb	r3, [r6, #0]
   21540:	6935      	ldr	r5, [r6, #16]
   21542:	eb06 1243 	add.w	r2, r6, r3, lsl #5
   21546:	4c63      	ldr	r4, [pc, #396]	; (216d4 <video_btldr_process+0x1bc>)
   21548:	eb06 1343 	add.w	r3, r6, r3, lsl #5
   2154c:	6a52      	ldr	r2, [r2, #36]	; 0x24
   2154e:	6a99      	ldr	r1, [r3, #40]	; 0x28
   21550:	4415      	add	r5, r2
   21552:	6b1b      	ldr	r3, [r3, #48]	; 0x30
   21554:	eb05 0801 	add.w	r8, r5, r1
   21558:	441d      	add	r5, r3
   2155a:	f00a febf 	bl	2c2dc <hal_voe_fcs_check_OK>
   2155e:	4682      	mov	sl, r0
   21560:	2800      	cmp	r0, #0
   21562:	d07d      	beq.n	21660 <video_btldr_process+0x148>
   21564:	6978      	ldr	r0, [r7, #20]
   21566:	f000 fa0d 	bl	21984 <user_boot_config_init>
   2156a:	f8d4 34f0 	ldr.w	r3, [r4, #1264]	; 0x4f0
   2156e:	b173      	cbz	r3, 2158e <video_btldr_process+0x76>
   21570:	7872      	ldrb	r2, [r6, #1]
   21572:	4293      	cmp	r3, r2
   21574:	d20b      	bcs.n	2158e <video_btldr_process+0x76>
   21576:	eb06 1243 	add.w	r2, r6, r3, lsl #5
   2157a:	6935      	ldr	r5, [r6, #16]
   2157c:	eb06 1343 	add.w	r3, r6, r3, lsl #5
   21580:	6a52      	ldr	r2, [r2, #36]	; 0x24
   21582:	6a99      	ldr	r1, [r3, #40]	; 0x28
   21584:	4415      	add	r5, r2
   21586:	6b1b      	ldr	r3, [r3, #48]	; 0x30
   21588:	eb05 0801 	add.w	r8, r5, r1
   2158c:	441d      	add	r5, r3
   2158e:	4a52      	ldr	r2, [pc, #328]	; (216d8 <video_btldr_process+0x1c0>)
   21590:	4641      	mov	r1, r8
   21592:	4648      	mov	r0, r9
   21594:	f00a fc48 	bl	2be28 <hal_voe_load_iq>
   21598:	4a4f      	ldr	r2, [pc, #316]	; (216d8 <video_btldr_process+0x1c0>)
   2159a:	4629      	mov	r1, r5
   2159c:	4648      	mov	r0, r9
   2159e:	f00a fbdf 	bl	2bd60 <hal_voe_load_sensor>
   215a2:	6be3      	ldr	r3, [r4, #60]	; 0x3c
   215a4:	b113      	cbz	r3, 215ac <video_btldr_process+0x94>
   215a6:	484b      	ldr	r0, [pc, #300]	; (216d4 <video_btldr_process+0x1bc>)
   215a8:	f7ff fdbe 	bl	21128 <video_boot_open>
   215ac:	f8d4 30a8 	ldr.w	r3, [r4, #168]	; 0xa8
   215b0:	6be5      	ldr	r5, [r4, #60]	; 0x3c
   215b2:	b113      	cbz	r3, 215ba <video_btldr_process+0xa2>
   215b4:	4849      	ldr	r0, [pc, #292]	; (216dc <video_btldr_process+0x1c4>)
   215b6:	f7ff fdb7 	bl	21128 <video_boot_open>
   215ba:	2d01      	cmp	r5, #1
   215bc:	d06d      	beq.n	2169a <video_btldr_process+0x182>
   215be:	f8d4 30a8 	ldr.w	r3, [r4, #168]	; 0xa8
   215c2:	2b01      	cmp	r3, #1
   215c4:	bf14      	ite	ne
   215c6:	f04f 38ff 	movne.w	r8, #4294967295	; 0xffffffff
   215ca:	f04f 0801 	moveq.w	r8, #1
   215ce:	f3bf 8f4f 	dsb	sy
   215d2:	693d      	ldr	r5, [r7, #16]
   215d4:	782a      	ldrb	r2, [r5, #0]
   215d6:	2a03      	cmp	r2, #3
   215d8:	d807      	bhi.n	215ea <video_btldr_process+0xd2>
   215da:	4b41      	ldr	r3, [pc, #260]	; (216e0 <video_btldr_process+0x1c8>)
   215dc:	eb03 0388 	add.w	r3, r3, r8, lsl #2
   215e0:	6858      	ldr	r0, [r3, #4]
   215e2:	f8c0 24f8 	str.w	r2, [r0, #1272]	; 0x4f8
   215e6:	f7ff fc71 	bl	20ecc <dcache_clean_invalidate_by_addr.constprop.0>
   215ea:	8aea      	ldrh	r2, [r5, #22]
   215ec:	7c2b      	ldrb	r3, [r5, #16]
   215ee:	2a01      	cmp	r2, #1
   215f0:	d156      	bne.n	216a0 <video_btldr_process+0x188>
   215f2:	2b03      	cmp	r3, #3
   215f4:	d914      	bls.n	21620 <video_btldr_process+0x108>
   215f6:	4b3a      	ldr	r3, [pc, #232]	; (216e0 <video_btldr_process+0x1c8>)
   215f8:	79a9      	ldrb	r1, [r5, #6]
   215fa:	eb03 0888 	add.w	r8, r3, r8, lsl #2
   215fe:	792a      	ldrb	r2, [r5, #4]
   21600:	79eb      	ldrb	r3, [r5, #7]
   21602:	f8d8 0004 	ldr.w	r0, [r8, #4]
   21606:	f8c0 14f0 	str.w	r1, [r0, #1264]	; 0x4f0
   2160a:	f8c0 34ec 	str.w	r3, [r0, #1260]	; 0x4ec
   2160e:	f8c0 24f4 	str.w	r2, [r0, #1268]	; 0x4f4
   21612:	f7ff fc5b 	bl	20ecc <dcache_clean_invalidate_by_addr.constprop.0>
   21616:	f04f 4170 	mov.w	r1, #4026531840	; 0xf0000000
   2161a:	7968      	ldrb	r0, [r5, #5]
   2161c:	f00b f92c 	bl	2c878 <hal_pinmux_unregister>
   21620:	f44f 62cf 	mov.w	r2, #1656	; 0x678
   21624:	492f      	ldr	r1, [pc, #188]	; (216e4 <video_btldr_process+0x1cc>)
   21626:	4668      	mov	r0, sp
   21628:	f00b f8ee 	bl	2c808 <__wrap_memcpy>
   2162c:	e894 000f 	ldmia.w	r4, {r0, r1, r2, r3}
   21630:	f7ff fd08 	bl	21044 <video_boot_buf_calc>
   21634:	4601      	mov	r1, r0
   21636:	f7ff fc53 	bl	20ee0 <video_boot_malloc>
   2163a:	f8d4 2534 	ldr.w	r2, [r4, #1332]	; 0x534
   2163e:	e9c4 017c 	strd	r0, r1, [r4, #496]	; 0x1f0
   21642:	b13a      	cbz	r2, 21654 <video_btldr_process+0x13c>
   21644:	4b28      	ldr	r3, [pc, #160]	; (216e8 <video_btldr_process+0x1d0>)
   21646:	4d29      	ldr	r5, [pc, #164]	; (216ec <video_btldr_process+0x1d4>)
   21648:	685b      	ldr	r3, [r3, #4]
   2164a:	fbb3 f3f5 	udiv	r3, r3, r5
   2164e:	4413      	add	r3, r2
   21650:	f8c4 3538 	str.w	r3, [r4, #1336]	; 0x538
   21654:	f00a f9ac 	bl	2b9b0 <hal_video_init>
   21658:	2301      	movs	r3, #1
   2165a:	4682      	mov	sl, r0
   2165c:	f8c4 33b8 	str.w	r3, [r4, #952]	; 0x3b8
   21660:	68bb      	ldr	r3, [r7, #8]
   21662:	f44f 72d8 	mov.w	r2, #432	; 0x1b0
   21666:	4631      	mov	r1, r6
   21668:	4821      	ldr	r0, [pc, #132]	; (216f0 <video_btldr_process+0x1d8>)
   2166a:	f8c4 33c0 	str.w	r3, [r4, #960]	; 0x3c0
   2166e:	f00b f8cb 	bl	2c808 <__wrap_memcpy>
   21672:	4b20      	ldr	r3, [pc, #128]	; (216f4 <video_btldr_process+0x1dc>)
   21674:	681b      	ldr	r3, [r3, #0]
   21676:	2b01      	cmp	r3, #1
   21678:	d104      	bne.n	21684 <video_btldr_process+0x16c>
   2167a:	f8d4 33b8 	ldr.w	r3, [r4, #952]	; 0x3b8
   2167e:	b90b      	cbnz	r3, 21684 <video_btldr_process+0x16c>
   21680:	f884 3204 	strb.w	r3, [r4, #516]	; 0x204
   21684:	f44f 62d1 	mov.w	r2, #1672	; 0x688
   21688:	4912      	ldr	r1, [pc, #72]	; (216d4 <video_btldr_process+0x1bc>)
   2168a:	481b      	ldr	r0, [pc, #108]	; (216f8 <video_btldr_process+0x1e0>)
   2168c:	f00b f8bc 	bl	2c808 <__wrap_memcpy>
   21690:	4650      	mov	r0, sl
   21692:	f50d 6dcf 	add.w	sp, sp, #1656	; 0x678
   21696:	e8bd 87f0 	ldmia.w	sp!, {r4, r5, r6, r7, r8, r9, sl, pc}
   2169a:	f04f 0800 	mov.w	r8, #0
   2169e:	e796      	b.n	215ce <video_btldr_process+0xb6>
   216a0:	2b02      	cmp	r3, #2
   216a2:	d9bd      	bls.n	21620 <video_btldr_process+0x108>
   216a4:	4b0e      	ldr	r3, [pc, #56]	; (216e0 <video_btldr_process+0x1c8>)
   216a6:	79a9      	ldrb	r1, [r5, #6]
   216a8:	eb03 0888 	add.w	r8, r3, r8, lsl #2
   216ac:	792a      	ldrb	r2, [r5, #4]
   216ae:	796b      	ldrb	r3, [r5, #5]
   216b0:	f8d8 0004 	ldr.w	r0, [r8, #4]
   216b4:	f8c0 34ec 	str.w	r3, [r0, #1260]	; 0x4ec
   216b8:	f8c0 14f0 	str.w	r1, [r0, #1264]	; 0x4f0
   216bc:	f8c0 24f4 	str.w	r2, [r0, #1268]	; 0x4f4
   216c0:	f7ff fc04 	bl	20ecc <dcache_clean_invalidate_by_addr.constprop.0>
   216c4:	e7ac      	b.n	21620 <video_btldr_process+0x108>
   216c6:	bf00      	nop
   216c8:	0001a2b0 	.word	0x0001a2b0
   216cc:	100bc800 	.word	0x100bc800
   216d0:	201012df 	.word	0x201012df
   216d4:	00020304 	.word	0x00020304
   216d8:	70000000 	.word	0x70000000
   216dc:	00020370 	.word	0x00020370
   216e0:	00020de0 	.word	0x00020de0
   216e4:	00020314 	.word	0x00020314
   216e8:	e0001000 	.word	0xe0001000
   216ec:	0007a120 	.word	0x0007a120
   216f0:	00020508 	.word	0x00020508
   216f4:	00018300 	.word	0x00018300
   216f8:	0001a4b9 	.word	0x0001a4b9

000216fc <video_btldr_fcs_terminated>:
   216fc:	e92d 43f0 	stmdb	sp!, {r4, r5, r6, r7, r8, r9, lr}
   21700:	b0d1      	sub	sp, #324	; 0x144
   21702:	6904      	ldr	r4, [r0, #16]
   21704:	f000 f93c 	bl	21980 <user_disable_fcs>
   21708:	4b39      	ldr	r3, [pc, #228]	; (217f0 <video_btldr_fcs_terminated+0xf4>)
   2170a:	6018      	str	r0, [r3, #0]
   2170c:	2800      	cmp	r0, #0
   2170e:	d03f      	beq.n	21790 <video_btldr_fcs_terminated+0x94>
   21710:	7ca3      	ldrb	r3, [r4, #18]
   21712:	a810      	add	r0, sp, #64	; 0x40
   21714:	931a      	str	r3, [sp, #104]	; 0x68
   21716:	7ce3      	ldrb	r3, [r4, #19]
   21718:	931b      	str	r3, [sp, #108]	; 0x6c
   2171a:	7823      	ldrb	r3, [r4, #0]
   2171c:	f88d 3048 	strb.w	r3, [sp, #72]	; 0x48
   21720:	f00a fa54 	bl	2bbcc <hal_i2c_pin_unregister_simple>
   21724:	4601      	mov	r1, r0
   21726:	b130      	cbz	r0, 21736 <video_btldr_fcs_terminated+0x3a>
   21728:	4b32      	ldr	r3, [pc, #200]	; (217f4 <video_btldr_fcs_terminated+0xf8>)
   2172a:	781b      	ldrb	r3, [r3, #0]
   2172c:	b11b      	cbz	r3, 21736 <video_btldr_fcs_terminated+0x3a>
   2172e:	4b32      	ldr	r3, [pc, #200]	; (217f8 <video_btldr_fcs_terminated+0xfc>)
   21730:	4832      	ldr	r0, [pc, #200]	; (217fc <video_btldr_fcs_terminated+0x100>)
   21732:	69db      	ldr	r3, [r3, #28]
   21734:	4798      	blx	r3
   21736:	7c23      	ldrb	r3, [r4, #16]
   21738:	b323      	cbz	r3, 21784 <video_btldr_fcs_terminated+0x88>
   2173a:	f04f 4170 	mov.w	r1, #4026531840	; 0xf0000000
   2173e:	7920      	ldrb	r0, [r4, #4]
   21740:	f00b f89a 	bl	2c878 <hal_pinmux_unregister>
   21744:	4601      	mov	r1, r0
   21746:	b338      	cbz	r0, 21798 <video_btldr_fcs_terminated+0x9c>
   21748:	4b2a      	ldr	r3, [pc, #168]	; (217f4 <video_btldr_fcs_terminated+0xf8>)
   2174a:	781b      	ldrb	r3, [r3, #0]
   2174c:	b11b      	cbz	r3, 21756 <video_btldr_fcs_terminated+0x5a>
   2174e:	4b2a      	ldr	r3, [pc, #168]	; (217f8 <video_btldr_fcs_terminated+0xfc>)
   21750:	482b      	ldr	r0, [pc, #172]	; (21800 <video_btldr_fcs_terminated+0x104>)
   21752:	69db      	ldr	r3, [r3, #28]
   21754:	4798      	blx	r3
   21756:	1d66      	adds	r6, r4, #5
   21758:	2501      	movs	r5, #1
   2175a:	4f26      	ldr	r7, [pc, #152]	; (217f4 <video_btldr_fcs_terminated+0xf8>)
   2175c:	f8df 8098 	ldr.w	r8, [pc, #152]	; 217f8 <video_btldr_fcs_terminated+0xfc>
   21760:	f8df 90ac 	ldr.w	r9, [pc, #172]	; 21810 <video_btldr_fcs_terminated+0x114>
   21764:	7c23      	ldrb	r3, [r4, #16]
   21766:	42ab      	cmp	r3, r5
   21768:	dc31      	bgt.n	217ce <video_btldr_fcs_terminated+0xd2>
   2176a:	210c      	movs	r1, #12
   2176c:	7c60      	ldrb	r0, [r4, #17]
   2176e:	f00b f883 	bl	2c878 <hal_pinmux_unregister>
   21772:	4601      	mov	r1, r0
   21774:	b130      	cbz	r0, 21784 <video_btldr_fcs_terminated+0x88>
   21776:	4b1f      	ldr	r3, [pc, #124]	; (217f4 <video_btldr_fcs_terminated+0xf8>)
   21778:	781b      	ldrb	r3, [r3, #0]
   2177a:	b11b      	cbz	r3, 21784 <video_btldr_fcs_terminated+0x88>
   2177c:	4b1e      	ldr	r3, [pc, #120]	; (217f8 <video_btldr_fcs_terminated+0xfc>)
   2177e:	4821      	ldr	r0, [pc, #132]	; (21804 <video_btldr_fcs_terminated+0x108>)
   21780:	69db      	ldr	r3, [r3, #28]
   21782:	4798      	blx	r3
   21784:	2300      	movs	r3, #0
   21786:	f242 0081 	movw	r0, #8321	; 0x2081
   2178a:	7563      	strb	r3, [r4, #21]
   2178c:	f00b fe6e 	bl	2d46c <hal_voe_set_kmfw_base_addr>
   21790:	2000      	movs	r0, #0
   21792:	b051      	add	sp, #324	; 0x144
   21794:	e8bd 83f0 	ldmia.w	sp!, {r4, r5, r6, r7, r8, r9, pc}
   21798:	7921      	ldrb	r1, [r4, #4]
   2179a:	4668      	mov	r0, sp
   2179c:	f003 fa46 	bl	24c2c <hal_gpio_init>
   217a0:	4605      	mov	r5, r0
   217a2:	b138      	cbz	r0, 217b4 <video_btldr_fcs_terminated+0xb8>
   217a4:	4b13      	ldr	r3, [pc, #76]	; (217f4 <video_btldr_fcs_terminated+0xf8>)
   217a6:	781b      	ldrb	r3, [r3, #0]
   217a8:	2b00      	cmp	r3, #0
   217aa:	d0d4      	beq.n	21756 <video_btldr_fcs_terminated+0x5a>
   217ac:	4601      	mov	r1, r0
   217ae:	4b12      	ldr	r3, [pc, #72]	; (217f8 <video_btldr_fcs_terminated+0xfc>)
   217b0:	4815      	ldr	r0, [pc, #84]	; (21808 <video_btldr_fcs_terminated+0x10c>)
   217b2:	e7ce      	b.n	21752 <video_btldr_fcs_terminated+0x56>
   217b4:	4e15      	ldr	r6, [pc, #84]	; (2180c <video_btldr_fcs_terminated+0x110>)
   217b6:	4668      	mov	r0, sp
   217b8:	2101      	movs	r1, #1
   217ba:	6cf3      	ldr	r3, [r6, #76]	; 0x4c
   217bc:	4798      	blx	r3
   217be:	4668      	mov	r0, sp
   217c0:	6d73      	ldr	r3, [r6, #84]	; 0x54
   217c2:	4629      	mov	r1, r5
   217c4:	4798      	blx	r3
   217c6:	4668      	mov	r0, sp
   217c8:	f003 fa68 	bl	24c9c <hal_gpio_deinit>
   217cc:	e7c3      	b.n	21756 <video_btldr_fcs_terminated+0x5a>
   217ce:	f04f 4170 	mov.w	r1, #4026531840	; 0xf0000000
   217d2:	f816 0b01 	ldrb.w	r0, [r6], #1
   217d6:	f00b f84f 	bl	2c878 <hal_pinmux_unregister>
   217da:	4602      	mov	r2, r0
   217dc:	b130      	cbz	r0, 217ec <video_btldr_fcs_terminated+0xf0>
   217de:	783b      	ldrb	r3, [r7, #0]
   217e0:	b123      	cbz	r3, 217ec <video_btldr_fcs_terminated+0xf0>
   217e2:	f8d8 301c 	ldr.w	r3, [r8, #28]
   217e6:	4629      	mov	r1, r5
   217e8:	4648      	mov	r0, r9
   217ea:	4798      	blx	r3
   217ec:	3501      	adds	r5, #1
   217ee:	e7b9      	b.n	21764 <video_btldr_fcs_terminated+0x68>
   217f0:	00018300 	.word	0x00018300
   217f4:	0001a2b0 	.word	0x0001a2b0
   217f8:	100bc800 	.word	0x100bc800
   217fc:	201012f9 	.word	0x201012f9
   21800:	20101333 	.word	0x20101333
   21804:	201013e4 	.word	0x201013e4
   21808:	20101372 	.word	0x20101372
   2180c:	10000680 	.word	0x10000680
   21810:	201013a9 	.word	0x201013a9

00021814 <user_boot_fw_selection>:
   21814:	2000      	movs	r0, #0
   21816:	4770      	bx	lr

00021818 <spic_user_select>:
   21818:	2304      	movs	r3, #4
   2181a:	7003      	strb	r3, [r0, #0]
   2181c:	4770      	bx	lr

0002181e <bootloader_enter>:
   2181e:	4770      	bx	lr

00021820 <boot_get_remap_table_index>:
   21820:	b570      	push	{r4, r5, r6, lr}
   21822:	4603      	mov	r3, r0
   21824:	2408      	movs	r4, #8
   21826:	7a1d      	ldrb	r5, [r3, #8]
   21828:	2d42      	cmp	r5, #66	; 0x42
   2182a:	d116      	bne.n	2185a <boot_get_remap_table_index+0x3a>
   2182c:	7a5d      	ldrb	r5, [r3, #9]
   2182e:	2d42      	cmp	r5, #66	; 0x42
   21830:	d113      	bne.n	2185a <boot_get_remap_table_index+0x3a>
   21832:	7b9d      	ldrb	r5, [r3, #14]
   21834:	2d62      	cmp	r5, #98	; 0x62
   21836:	d002      	beq.n	2183e <boot_get_remap_table_index+0x1e>
   21838:	7bdd      	ldrb	r5, [r3, #15]
   2183a:	2d62      	cmp	r5, #98	; 0x62
   2183c:	d112      	bne.n	21864 <boot_get_remap_table_index+0x44>
   2183e:	7ade      	ldrb	r6, [r3, #11]
   21840:	7a9d      	ldrb	r5, [r3, #10]
   21842:	ea45 2506 	orr.w	r5, r5, r6, lsl #8
   21846:	428d      	cmp	r5, r1
   21848:	d107      	bne.n	2185a <boot_get_remap_table_index+0x3a>
   2184a:	4404      	add	r4, r0
   2184c:	2000      	movs	r0, #0
   2184e:	7961      	ldrb	r1, [r4, #5]
   21850:	7923      	ldrb	r3, [r4, #4]
   21852:	ea43 2301 	orr.w	r3, r3, r1, lsl #8
   21856:	6013      	str	r3, [r2, #0]
   21858:	bd70      	pop	{r4, r5, r6, pc}
   2185a:	3408      	adds	r4, #8
   2185c:	3308      	adds	r3, #8
   2185e:	f5b4 6f00 	cmp.w	r4, #2048	; 0x800
   21862:	d1e0      	bne.n	21826 <boot_get_remap_table_index+0x6>
   21864:	f04f 30ff 	mov.w	r0, #4294967295	; 0xffffffff
   21868:	e7f6      	b.n	21858 <boot_get_remap_table_index+0x38>
	...

0002186c <boot_get_fcs_remap_block>:
   2186c:	e92d 43f7 	stmdb	sp!, {r0, r1, r2, r4, r5, r6, r7, r8, r9, lr}
   21870:	2300      	movs	r3, #0
   21872:	460f      	mov	r7, r1
   21874:	0c46      	lsrs	r6, r0, #17
   21876:	f44f 457f 	mov.w	r5, #65280	; 0xff00
   2187a:	f04f 34ff 	mov.w	r4, #4294967295	; 0xffffffff
   2187e:	f8df 8044 	ldr.w	r8, [pc, #68]	; 218c4 <boot_get_fcs_remap_block+0x58>
   21882:	f8df 9044 	ldr.w	r9, [pc, #68]	; 218c8 <boot_get_fcs_remap_block+0x5c>
   21886:	9301      	str	r3, [sp, #4]
   21888:	462b      	mov	r3, r5
   2188a:	f44f 6202 	mov.w	r2, #2080	; 0x820
   2188e:	490d      	ldr	r1, [pc, #52]	; (218c4 <boot_get_fcs_remap_block+0x58>)
   21890:	4648      	mov	r0, r9
   21892:	f003 faf9 	bl	24e88 <hal_snand_page_read>
   21896:	f898 3800 	ldrb.w	r3, [r8, #2048]	; 0x800
   2189a:	2bff      	cmp	r3, #255	; 0xff
   2189c:	d10d      	bne.n	218ba <boot_get_fcs_remap_block+0x4e>
   2189e:	aa01      	add	r2, sp, #4
   218a0:	4631      	mov	r1, r6
   218a2:	4640      	mov	r0, r8
   218a4:	f7ff ffbc 	bl	21820 <boot_get_remap_table_index>
   218a8:	1e04      	subs	r4, r0, #0
   218aa:	db06      	blt.n	218ba <boot_get_fcs_remap_block+0x4e>
   218ac:	9b01      	ldr	r3, [sp, #4]
   218ae:	2400      	movs	r4, #0
   218b0:	603b      	str	r3, [r7, #0]
   218b2:	4620      	mov	r0, r4
   218b4:	b003      	add	sp, #12
   218b6:	e8bd 83f0 	ldmia.w	sp!, {r4, r5, r6, r7, r8, r9, pc}
   218ba:	3540      	adds	r5, #64	; 0x40
   218bc:	f5b5 3f80 	cmp.w	r5, #65536	; 0x10000
   218c0:	d1e2      	bne.n	21888 <boot_get_fcs_remap_block+0x1c>
   218c2:	e7f6      	b.n	218b2 <boot_get_fcs_remap_block+0x46>
   218c4:	00018320 	.word	0x00018320
   218c8:	0001cb74 	.word	0x0001cb74

000218cc <boot_read_flash_data>:
   218cc:	f5b2 6f00 	cmp.w	r2, #2048	; 0x800
   218d0:	b5f7      	push	{r0, r1, r2, r4, r5, r6, r7, lr}
   218d2:	4606      	mov	r6, r0
   218d4:	460d      	mov	r5, r1
   218d6:	4614      	mov	r4, r2
   218d8:	dc41      	bgt.n	2195e <boot_read_flash_data+0x92>
   218da:	f00b fa3f 	bl	2cd5c <hal_sys_get_boot_select>
   218de:	2801      	cmp	r0, #1
   218e0:	d12b      	bne.n	2193a <boot_read_flash_data+0x6e>
   218e2:	4f20      	ldr	r7, [pc, #128]	; (21964 <boot_read_flash_data+0x98>)
   218e4:	0af3      	lsrs	r3, r6, #11
   218e6:	f44f 6202 	mov.w	r2, #2080	; 0x820
   218ea:	481f      	ldr	r0, [pc, #124]	; (21968 <boot_read_flash_data+0x9c>)
   218ec:	4639      	mov	r1, r7
   218ee:	f003 facb 	bl	24e88 <hal_snand_page_read>
   218f2:	f897 3800 	ldrb.w	r3, [r7, #2048]	; 0x800
   218f6:	2bff      	cmp	r3, #255	; 0xff
   218f8:	d00f      	beq.n	2191a <boot_read_flash_data+0x4e>
   218fa:	2300      	movs	r3, #0
   218fc:	a901      	add	r1, sp, #4
   218fe:	4630      	mov	r0, r6
   21900:	9301      	str	r3, [sp, #4]
   21902:	f7ff ffb3 	bl	2186c <boot_get_fcs_remap_block>
   21906:	2800      	cmp	r0, #0
   21908:	db0d      	blt.n	21926 <boot_read_flash_data+0x5a>
   2190a:	9b01      	ldr	r3, [sp, #4]
   2190c:	f44f 6202 	mov.w	r2, #2080	; 0x820
   21910:	4639      	mov	r1, r7
   21912:	4815      	ldr	r0, [pc, #84]	; (21968 <boot_read_flash_data+0x9c>)
   21914:	019b      	lsls	r3, r3, #6
   21916:	f003 fab7 	bl	24e88 <hal_snand_page_read>
   2191a:	4622      	mov	r2, r4
   2191c:	4639      	mov	r1, r7
   2191e:	4628      	mov	r0, r5
   21920:	f00a ff72 	bl	2c808 <__wrap_memcpy>
   21924:	e006      	b.n	21934 <boot_read_flash_data+0x68>
   21926:	4b11      	ldr	r3, [pc, #68]	; (2196c <boot_read_flash_data+0xa0>)
   21928:	781b      	ldrb	r3, [r3, #0]
   2192a:	b11b      	cbz	r3, 21934 <boot_read_flash_data+0x68>
   2192c:	4b10      	ldr	r3, [pc, #64]	; (21970 <boot_read_flash_data+0xa4>)
   2192e:	4811      	ldr	r0, [pc, #68]	; (21974 <boot_read_flash_data+0xa8>)
   21930:	69db      	ldr	r3, [r3, #28]
   21932:	4798      	blx	r3
   21934:	2000      	movs	r0, #0
   21936:	b003      	add	sp, #12
   21938:	bdf0      	pop	{r4, r5, r6, r7, pc}
   2193a:	f106 6700 	add.w	r7, r6, #134217728	; 0x8000000
   2193e:	4b0e      	ldr	r3, [pc, #56]	; (21978 <boot_read_flash_data+0xac>)
   21940:	4621      	mov	r1, r4
   21942:	4638      	mov	r0, r7
   21944:	6a1b      	ldr	r3, [r3, #32]
   21946:	4798      	blx	r3
   21948:	480c      	ldr	r0, [pc, #48]	; (2197c <boot_read_flash_data+0xb0>)
   2194a:	f890 30e0 	ldrb.w	r3, [r0, #224]	; 0xe0
   2194e:	2b18      	cmp	r3, #24
   21950:	d8e3      	bhi.n	2191a <boot_read_flash_data+0x4e>
   21952:	462b      	mov	r3, r5
   21954:	4632      	mov	r2, r6
   21956:	4621      	mov	r1, r4
   21958:	f003 f86c 	bl	24a34 <hal_flash_stream_read>
   2195c:	e7ea      	b.n	21934 <boot_read_flash_data+0x68>
   2195e:	f04f 30ff 	mov.w	r0, #4294967295	; 0xffffffff
   21962:	e7e8      	b.n	21936 <boot_read_flash_data+0x6a>
   21964:	00018320 	.word	0x00018320
   21968:	0001cb74 	.word	0x0001cb74
   2196c:	0001a2b0 	.word	0x0001a2b0
   21970:	100bc800 	.word	0x100bc800
   21974:	2010143e 	.word	0x2010143e
   21978:	10000a60 	.word	0x10000a60
   2197c:	20000420 	.word	0x20000420

00021980 <user_disable_fcs>:
   21980:	2000      	movs	r0, #0
   21982:	4770      	bx	lr

00021984 <user_boot_config_init>:
   21984:	b5f0      	push	{r4, r5, r6, r7, lr}
   21986:	f6ad 0d24 	subw	sp, sp, #2084	; 0x824
   2198a:	4e47      	ldr	r6, [pc, #284]	; (21aa8 <user_boot_config_init+0x124>)
   2198c:	f004 fa42 	bl	25e14 <hal_read_curtime_us>
   21990:	f44f 737a 	mov.w	r3, #1000	; 0x3e8
   21994:	f04f 22e0 	mov.w	r2, #3758153728	; 0xe000e000
   21998:	2500      	movs	r5, #0
   2199a:	f10d 0427 	add.w	r4, sp, #39	; 0x27
   2199e:	4629      	mov	r1, r5
   219a0:	f024 041f 	bic.w	r4, r4, #31
   219a4:	fbb0 f0f3 	udiv	r0, r0, r3
   219a8:	f8c6 0534 	str.w	r0, [r6, #1332]	; 0x534
   219ac:	4620      	mov	r0, r4
   219ae:	f8d2 3dfc 	ldr.w	r3, [r2, #3580]	; 0xdfc
   219b2:	f043 7380 	orr.w	r3, r3, #16777216	; 0x1000000
   219b6:	f8c2 3dfc 	str.w	r3, [r2, #3580]	; 0xdfc
   219ba:	4b3c      	ldr	r3, [pc, #240]	; (21aac <user_boot_config_init+0x128>)
   219bc:	605d      	str	r5, [r3, #4]
   219be:	681a      	ldr	r2, [r3, #0]
   219c0:	f042 0201 	orr.w	r2, r2, #1
   219c4:	601a      	str	r2, [r3, #0]
   219c6:	f44f 6200 	mov.w	r2, #2048	; 0x800
   219ca:	f00a ff25 	bl	2c818 <__wrap_memset>
   219ce:	f00b f9c5 	bl	2cd5c <hal_sys_get_boot_select>
   219d2:	2801      	cmp	r0, #1
   219d4:	f44f 6200 	mov.w	r2, #2048	; 0x800
   219d8:	4835      	ldr	r0, [pc, #212]	; (21ab0 <user_boot_config_init+0x12c>)
   219da:	4621      	mov	r1, r4
   219dc:	bf08      	it	eq
   219de:	f04f 60e1 	moveq.w	r0, #117964800	; 0x7080000
   219e2:	f7ff ff73 	bl	218cc <boot_read_flash_data>
   219e6:	42a8      	cmp	r0, r5
   219e8:	db2d      	blt.n	21a46 <user_boot_config_init+0xc2>
   219ea:	7821      	ldrb	r1, [r4, #0]
   219ec:	2946      	cmp	r1, #70	; 0x46
   219ee:	d14e      	bne.n	21a8e <user_boot_config_init+0x10a>
   219f0:	7863      	ldrb	r3, [r4, #1]
   219f2:	2b43      	cmp	r3, #67	; 0x43
   219f4:	d14b      	bne.n	21a8e <user_boot_config_init+0x10a>
   219f6:	78a3      	ldrb	r3, [r4, #2]
   219f8:	2b53      	cmp	r3, #83	; 0x53
   219fa:	d148      	bne.n	21a8e <user_boot_config_init+0x10a>
   219fc:	78e3      	ldrb	r3, [r4, #3]
   219fe:	2b44      	cmp	r3, #68	; 0x44
   21a00:	d145      	bne.n	21a8e <user_boot_config_init+0x10a>
   21a02:	f104 0008 	add.w	r0, r4, #8
   21a06:	6867      	ldr	r7, [r4, #4]
   21a08:	462a      	mov	r2, r5
   21a0a:	462b      	mov	r3, r5
   21a0c:	4601      	mov	r1, r0
   21a0e:	3201      	adds	r2, #1
   21a10:	f810 5b01 	ldrb.w	r5, [r0], #1
   21a14:	f5b2 6fd1 	cmp.w	r2, #1672	; 0x688
   21a18:	442b      	add	r3, r5
   21a1a:	d1f8      	bne.n	21a0e <user_boot_config_init+0x8a>
   21a1c:	429f      	cmp	r7, r3
   21a1e:	d12f      	bne.n	21a80 <user_boot_config_init+0xfc>
   21a20:	f8d6 01d0 	ldr.w	r0, [r6, #464]	; 0x1d0
   21a24:	f8d4 31d8 	ldr.w	r3, [r4, #472]	; 0x1d8
   21a28:	4298      	cmp	r0, r3
   21a2a:	d10f      	bne.n	21a4c <user_boot_config_init+0xc8>
   21a2c:	f8d6 01d4 	ldr.w	r0, [r6, #468]	; 0x1d4
   21a30:	f8d4 31dc 	ldr.w	r3, [r4, #476]	; 0x1dc
   21a34:	4298      	cmp	r0, r3
   21a36:	d109      	bne.n	21a4c <user_boot_config_init+0xc8>
   21a38:	f8d6 4534 	ldr.w	r4, [r6, #1332]	; 0x534
   21a3c:	481a      	ldr	r0, [pc, #104]	; (21aa8 <user_boot_config_init+0x124>)
   21a3e:	f00a fee3 	bl	2c808 <__wrap_memcpy>
   21a42:	f8c6 4534 	str.w	r4, [r6, #1332]	; 0x534
   21a46:	f60d 0d24 	addw	sp, sp, #2084	; 0x824
   21a4a:	bdf0      	pop	{r4, r5, r6, r7, pc}
   21a4c:	f8d4 33cc 	ldr.w	r3, [r4, #972]	; 0x3cc
   21a50:	2b00      	cmp	r3, #0
   21a52:	d0f8      	beq.n	21a46 <user_boot_config_init+0xc2>
   21a54:	f8d4 33d8 	ldr.w	r3, [r4, #984]	; 0x3d8
   21a58:	2b00      	cmp	r3, #0
   21a5a:	d0f4      	beq.n	21a46 <user_boot_config_init+0xc2>
   21a5c:	f504 7473 	add.w	r4, r4, #972	; 0x3cc
   21a60:	4d14      	ldr	r5, [pc, #80]	; (21ab4 <user_boot_config_init+0x130>)
   21a62:	cc0f      	ldmia	r4!, {r0, r1, r2, r3}
   21a64:	c50f      	stmia	r5!, {r0, r1, r2, r3}
   21a66:	4b14      	ldr	r3, [pc, #80]	; (21ab8 <user_boot_config_init+0x134>)
   21a68:	e894 0003 	ldmia.w	r4, {r0, r1}
   21a6c:	781b      	ldrb	r3, [r3, #0]
   21a6e:	e885 0003 	stmia.w	r5, {r0, r1}
   21a72:	2b00      	cmp	r3, #0
   21a74:	d0e7      	beq.n	21a46 <user_boot_config_init+0xc2>
   21a76:	4b11      	ldr	r3, [pc, #68]	; (21abc <user_boot_config_init+0x138>)
   21a78:	4811      	ldr	r0, [pc, #68]	; (21ac0 <user_boot_config_init+0x13c>)
   21a7a:	69db      	ldr	r3, [r3, #28]
   21a7c:	4798      	blx	r3
   21a7e:	e7e2      	b.n	21a46 <user_boot_config_init+0xc2>
   21a80:	4b0d      	ldr	r3, [pc, #52]	; (21ab8 <user_boot_config_init+0x134>)
   21a82:	781b      	ldrb	r3, [r3, #0]
   21a84:	2b00      	cmp	r3, #0
   21a86:	d0de      	beq.n	21a46 <user_boot_config_init+0xc2>
   21a88:	4b0c      	ldr	r3, [pc, #48]	; (21abc <user_boot_config_init+0x138>)
   21a8a:	480e      	ldr	r0, [pc, #56]	; (21ac4 <user_boot_config_init+0x140>)
   21a8c:	e7f5      	b.n	21a7a <user_boot_config_init+0xf6>
   21a8e:	4b0a      	ldr	r3, [pc, #40]	; (21ab8 <user_boot_config_init+0x134>)
   21a90:	781b      	ldrb	r3, [r3, #0]
   21a92:	2b00      	cmp	r3, #0
   21a94:	d0d7      	beq.n	21a46 <user_boot_config_init+0xc2>
   21a96:	78a3      	ldrb	r3, [r4, #2]
   21a98:	7862      	ldrb	r2, [r4, #1]
   21a9a:	78e0      	ldrb	r0, [r4, #3]
   21a9c:	4c07      	ldr	r4, [pc, #28]	; (21abc <user_boot_config_init+0x138>)
   21a9e:	9000      	str	r0, [sp, #0]
   21aa0:	69e4      	ldr	r4, [r4, #28]
   21aa2:	4809      	ldr	r0, [pc, #36]	; (21ac8 <user_boot_config_init+0x144>)
   21aa4:	47a0      	blx	r4
   21aa6:	e7ce      	b.n	21a46 <user_boot_config_init+0xc2>
   21aa8:	00020304 	.word	0x00020304
   21aac:	e0001000 	.word	0xe0001000
   21ab0:	00f0d000 	.word	0x00f0d000
   21ab4:	000206c8 	.word	0x000206c8
   21ab8:	0001a2b0 	.word	0x0001a2b0
   21abc:	100bc800 	.word	0x100bc800
   21ac0:	2010145d 	.word	0x2010145d
   21ac4:	20101473 	.word	0x20101473
   21ac8:	20101484 	.word	0x20101484

00021acc <check_addr_region>:
   21acc:	f1b0 6f00 	cmp.w	r0, #134217728	; 0x8000000
   21ad0:	d30b      	bcc.n	21aea <check_addr_region+0x1e>
   21ad2:	ea40 0301 	orr.w	r3, r0, r1
   21ad6:	f3c3 030b 	ubfx	r3, r3, #0, #12
   21ada:	b933      	cbnz	r3, 21aea <check_addr_region+0x1e>
   21adc:	4408      	add	r0, r1
   21ade:	f1b0 5f80 	cmp.w	r0, #268435456	; 0x10000000
   21ae2:	bf94      	ite	ls
   21ae4:	2000      	movls	r0, #0
   21ae6:	2001      	movhi	r0, #1
   21ae8:	4770      	bx	lr
   21aea:	2001      	movs	r0, #1
   21aec:	4770      	bx	lr
	...

00021af0 <hal_flash_sec_get_status>:
   21af0:	b508      	push	{r3, lr}
   21af2:	4b02      	ldr	r3, [pc, #8]	; (21afc <hal_flash_sec_get_status+0xc>)
   21af4:	681b      	ldr	r3, [r3, #0]
   21af6:	4798      	blx	r3
   21af8:	bd08      	pop	{r3, pc}
   21afa:	bf00      	nop
   21afc:	10000ca0 	.word	0x10000ca0

00021b00 <check_rom_error>:
   21b00:	b510      	push	{r4, lr}
   21b02:	4c0d      	ldr	r4, [pc, #52]	; (21b38 <check_rom_error+0x38>)
   21b04:	4620      	mov	r0, r4
   21b06:	f7ff fff3 	bl	21af0 <hal_flash_sec_get_status>
   21b0a:	79a3      	ldrb	r3, [r4, #6]
   21b0c:	2b01      	cmp	r3, #1
   21b0e:	d011      	beq.n	21b34 <check_rom_error+0x34>
   21b10:	79e3      	ldrb	r3, [r4, #7]
   21b12:	2b01      	cmp	r3, #1
   21b14:	d00e      	beq.n	21b34 <check_rom_error+0x34>
   21b16:	7923      	ldrb	r3, [r4, #4]
   21b18:	2b01      	cmp	r3, #1
   21b1a:	d00b      	beq.n	21b34 <check_rom_error+0x34>
   21b1c:	78a3      	ldrb	r3, [r4, #2]
   21b1e:	2b01      	cmp	r3, #1
   21b20:	d008      	beq.n	21b34 <check_rom_error+0x34>
   21b22:	78e3      	ldrb	r3, [r4, #3]
   21b24:	2b01      	cmp	r3, #1
   21b26:	d005      	beq.n	21b34 <check_rom_error+0x34>
   21b28:	7963      	ldrb	r3, [r4, #5]
   21b2a:	2b01      	cmp	r3, #1
   21b2c:	bf0c      	ite	eq
   21b2e:	20ee      	moveq	r0, #238	; 0xee
   21b30:	2000      	movne	r0, #0
   21b32:	bd10      	pop	{r4, pc}
   21b34:	20ee      	movs	r0, #238	; 0xee
   21b36:	e7fc      	b.n	21b32 <check_rom_error+0x32>
   21b38:	00018b60 	.word	0x00018b60

00021b3c <hal_flash_sec_aes_disable>:
   21b3c:	b508      	push	{r3, lr}
   21b3e:	4b02      	ldr	r3, [pc, #8]	; (21b48 <hal_flash_sec_aes_disable+0xc>)
   21b40:	691b      	ldr	r3, [r3, #16]
   21b42:	4798      	blx	r3
   21b44:	bd08      	pop	{r3, pc}
   21b46:	bf00      	nop
   21b48:	10000ca0 	.word	0x10000ca0

00021b4c <hal_flash_sec_enable_rmp_region>:
   21b4c:	b513      	push	{r0, r1, r4, lr}
   21b4e:	9300      	str	r3, [sp, #0]
   21b50:	4b04      	ldr	r3, [pc, #16]	; (21b64 <hal_flash_sec_enable_rmp_region+0x18>)
   21b52:	681c      	ldr	r4, [r3, #0]
   21b54:	4613      	mov	r3, r2
   21b56:	460a      	mov	r2, r1
   21b58:	4601      	mov	r1, r0
   21b5a:	4803      	ldr	r0, [pc, #12]	; (21b68 <hal_flash_sec_enable_rmp_region+0x1c>)
   21b5c:	47a0      	blx	r4
   21b5e:	b002      	add	sp, #8
   21b60:	bd10      	pop	{r4, pc}
   21b62:	bf00      	nop
   21b64:	10001130 	.word	0x10001130
   21b68:	00018b68 	.word	0x00018b68

00021b6c <hal_flash_sec_set_word_from_byte_bigen>:
   21b6c:	2300      	movs	r3, #0
   21b6e:	b507      	push	{r0, r1, r2, lr}
   21b70:	9301      	str	r3, [sp, #4]
   21b72:	4b04      	ldr	r3, [pc, #16]	; (21b84 <hal_flash_sec_set_word_from_byte_bigen+0x18>)
   21b74:	695b      	ldr	r3, [r3, #20]
   21b76:	4798      	blx	r3
   21b78:	9001      	str	r0, [sp, #4]
   21b7a:	9801      	ldr	r0, [sp, #4]
   21b7c:	b003      	add	sp, #12
   21b7e:	f85d fb04 	ldr.w	pc, [sp], #4
   21b82:	bf00      	nop
   21b84:	10001130 	.word	0x10001130

00021b88 <hal_flash_sec_default_calculate_tag_base>:
   21b88:	b51f      	push	{r0, r1, r2, r3, r4, lr}
   21b8a:	9c06      	ldr	r4, [sp, #24]
   21b8c:	9200      	str	r2, [sp, #0]
   21b8e:	4602      	mov	r2, r0
   21b90:	2020      	movs	r0, #32
   21b92:	e9cd 3401 	strd	r3, r4, [sp, #4]
   21b96:	4b03      	ldr	r3, [pc, #12]	; (21ba4 <hal_flash_sec_default_calculate_tag_base+0x1c>)
   21b98:	685c      	ldr	r4, [r3, #4]
   21b9a:	460b      	mov	r3, r1
   21b9c:	2104      	movs	r1, #4
   21b9e:	47a0      	blx	r4
   21ba0:	b004      	add	sp, #16
   21ba2:	bd10      	pop	{r4, pc}
   21ba4:	10001130 	.word	0x10001130

00021ba8 <hal_flash_sec_default_decrypt_init>:
   21ba8:	2304      	movs	r3, #4
   21baa:	b513      	push	{r0, r1, r4, lr}
   21bac:	9300      	str	r3, [sp, #0]
   21bae:	4601      	mov	r1, r0
   21bb0:	4b03      	ldr	r3, [pc, #12]	; (21bc0 <hal_flash_sec_default_decrypt_init+0x18>)
   21bb2:	4804      	ldr	r0, [pc, #16]	; (21bc4 <hal_flash_sec_default_decrypt_init+0x1c>)
   21bb4:	689c      	ldr	r4, [r3, #8]
   21bb6:	2320      	movs	r3, #32
   21bb8:	461a      	mov	r2, r3
   21bba:	47a0      	blx	r4
   21bbc:	b002      	add	sp, #8
   21bbe:	bd10      	pop	{r4, pc}
   21bc0:	10001130 	.word	0x10001130
   21bc4:	00018b68 	.word	0x00018b68

00021bc8 <hal_flash_sec_decrypt_region_init>:
   21bc8:	2a07      	cmp	r2, #7
   21bca:	4613      	mov	r3, r2
   21bcc:	b510      	push	{r4, lr}
   21bce:	d806      	bhi.n	21bde <hal_flash_sec_decrypt_region_init+0x16>
   21bd0:	4c04      	ldr	r4, [pc, #16]	; (21be4 <hal_flash_sec_decrypt_region_init+0x1c>)
   21bd2:	460a      	mov	r2, r1
   21bd4:	4601      	mov	r1, r0
   21bd6:	4804      	ldr	r0, [pc, #16]	; (21be8 <hal_flash_sec_decrypt_region_init+0x20>)
   21bd8:	68e4      	ldr	r4, [r4, #12]
   21bda:	47a0      	blx	r4
   21bdc:	bd10      	pop	{r4, pc}
   21bde:	2003      	movs	r0, #3
   21be0:	e7fc      	b.n	21bdc <hal_flash_sec_decrypt_region_init+0x14>
   21be2:	bf00      	nop
   21be4:	10001130 	.word	0x10001130
   21be8:	00018b68 	.word	0x00018b68

00021bec <hal_flash_sec_decrypt_region_enable>:
   21bec:	b513      	push	{r0, r1, r4, lr}
   21bee:	9300      	str	r3, [sp, #0]
   21bf0:	4b04      	ldr	r3, [pc, #16]	; (21c04 <hal_flash_sec_decrypt_region_enable+0x18>)
   21bf2:	691c      	ldr	r4, [r3, #16]
   21bf4:	4613      	mov	r3, r2
   21bf6:	460a      	mov	r2, r1
   21bf8:	4601      	mov	r1, r0
   21bfa:	4803      	ldr	r0, [pc, #12]	; (21c08 <hal_flash_sec_decrypt_region_enable+0x1c>)
   21bfc:	47a0      	blx	r4
   21bfe:	b002      	add	sp, #8
   21c00:	bd10      	pop	{r4, pc}
   21c02:	bf00      	nop
   21c04:	10001130 	.word	0x10001130
   21c08:	00018b68 	.word	0x00018b68

00021c0c <hal_flash_sec_remap_region>:
   21c0c:	b570      	push	{r4, r5, r6, lr}
   21c0e:	6986      	ldr	r6, [r0, #24]
   21c10:	4602      	mov	r2, r0
   21c12:	6884      	ldr	r4, [r0, #8]
   21c14:	4631      	mov	r1, r6
   21c16:	4620      	mov	r0, r4
   21c18:	f7ff ff58 	bl	21acc <check_addr_region>
   21c1c:	b9d8      	cbnz	r0, 21c56 <hal_flash_sec_remap_region+0x4a>
   21c1e:	68d5      	ldr	r5, [r2, #12]
   21c20:	4628      	mov	r0, r5
   21c22:	f7ff ff53 	bl	21acc <check_addr_region>
   21c26:	b9b0      	cbnz	r0, 21c56 <hal_flash_sec_remap_region+0x4a>
   21c28:	42ac      	cmp	r4, r5
   21c2a:	d910      	bls.n	21c4e <hal_flash_sec_remap_region+0x42>
   21c2c:	4435      	add	r5, r6
   21c2e:	42ac      	cmp	r4, r5
   21c30:	d311      	bcc.n	21c56 <hal_flash_sec_remap_region+0x4a>
   21c32:	7953      	ldrb	r3, [r2, #5]
   21c34:	2b01      	cmp	r3, #1
   21c36:	d80e      	bhi.n	21c56 <hal_flash_sec_remap_region+0x4a>
   21c38:	7893      	ldrb	r3, [r2, #2]
   21c3a:	2b03      	cmp	r3, #3
   21c3c:	d80b      	bhi.n	21c56 <hal_flash_sec_remap_region+0x4a>
   21c3e:	4b07      	ldr	r3, [pc, #28]	; (21c5c <hal_flash_sec_remap_region+0x50>)
   21c40:	4610      	mov	r0, r2
   21c42:	6b1b      	ldr	r3, [r3, #48]	; 0x30
   21c44:	4798      	blx	r3
   21c46:	b908      	cbnz	r0, 21c4c <hal_flash_sec_remap_region+0x40>
   21c48:	f7ff ff5a 	bl	21b00 <check_rom_error>
   21c4c:	bd70      	pop	{r4, r5, r6, pc}
   21c4e:	d202      	bcs.n	21c56 <hal_flash_sec_remap_region+0x4a>
   21c50:	4434      	add	r4, r6
   21c52:	42a5      	cmp	r5, r4
   21c54:	e7ec      	b.n	21c30 <hal_flash_sec_remap_region+0x24>
   21c56:	2003      	movs	r0, #3
   21c58:	e7f8      	b.n	21c4c <hal_flash_sec_remap_region+0x40>
   21c5a:	bf00      	nop
   21c5c:	10000ca0 	.word	0x10000ca0

00021c60 <hal_flash_sec_enable_remap_region>:
   21c60:	b508      	push	{r3, lr}
   21c62:	2301      	movs	r3, #1
   21c64:	7143      	strb	r3, [r0, #5]
   21c66:	f7ff ffd1 	bl	21c0c <hal_flash_sec_remap_region>
   21c6a:	bd08      	pop	{r3, pc}

00021c6c <hal_flash_sec_disable_remap_region>:
   21c6c:	b508      	push	{r3, lr}
   21c6e:	4b02      	ldr	r3, [pc, #8]	; (21c78 <hal_flash_sec_disable_remap_region+0xc>)
   21c70:	6b5b      	ldr	r3, [r3, #52]	; 0x34
   21c72:	4798      	blx	r3
   21c74:	bd08      	pop	{r3, pc}
   21c76:	bf00      	nop
   21c78:	10000ca0 	.word	0x10000ca0

00021c7c <hal_flash_sec_disable_decrypt_region>:
   21c7c:	b508      	push	{r3, lr}
   21c7e:	4b02      	ldr	r3, [pc, #8]	; (21c88 <hal_flash_sec_disable_decrypt_region+0xc>)
   21c80:	6c1b      	ldr	r3, [r3, #64]	; 0x40
   21c82:	4798      	blx	r3
   21c84:	bd08      	pop	{r3, pc}
   21c86:	bf00      	nop
   21c88:	10000ca0 	.word	0x10000ca0

00021c8c <hal_flash_sec_disable_dec_region>:
   21c8c:	b508      	push	{r3, lr}
   21c8e:	4b03      	ldr	r3, [pc, #12]	; (21c9c <hal_flash_sec_disable_dec_region+0x10>)
   21c90:	7058      	strb	r0, [r3, #1]
   21c92:	4618      	mov	r0, r3
   21c94:	f7ff fff2 	bl	21c7c <hal_flash_sec_disable_decrypt_region>
   21c98:	bd08      	pop	{r3, pc}
   21c9a:	bf00      	nop
   21c9c:	00018b68 	.word	0x00018b68

00021ca0 <hal_flash_sec_disable_rmp_region>:
   21ca0:	b508      	push	{r3, lr}
   21ca2:	4b03      	ldr	r3, [pc, #12]	; (21cb0 <hal_flash_sec_disable_rmp_region+0x10>)
   21ca4:	7098      	strb	r0, [r3, #2]
   21ca6:	4618      	mov	r0, r3
   21ca8:	f7ff ffe0 	bl	21c6c <hal_flash_sec_disable_remap_region>
   21cac:	bd08      	pop	{r3, pc}
   21cae:	bf00      	nop
   21cb0:	00018b68 	.word	0x00018b68

00021cb4 <hal_hkdf_hmac_sha2_256_init>:
   21cb4:	b508      	push	{r3, lr}
   21cb6:	4603      	mov	r3, r0
   21cb8:	4608      	mov	r0, r1
   21cba:	4611      	mov	r1, r2
   21cbc:	b16b      	cbz	r3, 21cda <hal_hkdf_hmac_sha2_256_init+0x26>
   21cbe:	889a      	ldrh	r2, [r3, #4]
   21cc0:	b96a      	cbnz	r2, 21cde <hal_hkdf_hmac_sha2_256_init+0x2a>
   21cc2:	785a      	ldrb	r2, [r3, #1]
   21cc4:	2a01      	cmp	r2, #1
   21cc6:	d10d      	bne.n	21ce4 <hal_hkdf_hmac_sha2_256_init+0x30>
   21cc8:	68db      	ldr	r3, [r3, #12]
   21cca:	b913      	cbnz	r3, 21cd2 <hal_hkdf_hmac_sha2_256_init+0x1e>
   21ccc:	f002 fa74 	bl	241b8 <hal_crypto_hmac_sha2_256_init>
   21cd0:	bd08      	pop	{r3, pc}
   21cd2:	4619      	mov	r1, r3
   21cd4:	f002 faee 	bl	242b4 <hal_crypto_hmac_sha2_256_sk_init>
   21cd8:	e7fa      	b.n	21cd0 <hal_hkdf_hmac_sha2_256_init+0x1c>
   21cda:	2003      	movs	r0, #3
   21cdc:	e7f8      	b.n	21cd0 <hal_hkdf_hmac_sha2_256_init+0x1c>
   21cde:	f06f 0009 	mvn.w	r0, #9
   21ce2:	e7f5      	b.n	21cd0 <hal_hkdf_hmac_sha2_256_init+0x1c>
   21ce4:	f06f 000a 	mvn.w	r0, #10
   21ce8:	e7f2      	b.n	21cd0 <hal_hkdf_hmac_sha2_256_init+0x1c>

00021cea <hal_hkdf_hmac_sha2_256_update>:
   21cea:	b508      	push	{r3, lr}
   21cec:	4603      	mov	r3, r0
   21cee:	4608      	mov	r0, r1
   21cf0:	4611      	mov	r1, r2
   21cf2:	b13b      	cbz	r3, 21d04 <hal_hkdf_hmac_sha2_256_update+0x1a>
   21cf4:	889a      	ldrh	r2, [r3, #4]
   21cf6:	b93a      	cbnz	r2, 21d08 <hal_hkdf_hmac_sha2_256_update+0x1e>
   21cf8:	785b      	ldrb	r3, [r3, #1]
   21cfa:	2b01      	cmp	r3, #1
   21cfc:	d107      	bne.n	21d0e <hal_hkdf_hmac_sha2_256_update+0x24>
   21cfe:	f002 fa7d 	bl	241fc <hal_crypto_hmac_sha2_256_update>
   21d02:	bd08      	pop	{r3, pc}
   21d04:	2003      	movs	r0, #3
   21d06:	e7fc      	b.n	21d02 <hal_hkdf_hmac_sha2_256_update+0x18>
   21d08:	f06f 0009 	mvn.w	r0, #9
   21d0c:	e7f9      	b.n	21d02 <hal_hkdf_hmac_sha2_256_update+0x18>
   21d0e:	f06f 000a 	mvn.w	r0, #10
   21d12:	e7f6      	b.n	21d02 <hal_hkdf_hmac_sha2_256_update+0x18>

00021d14 <hal_hkdf_hmac_sha2_256_final>:
   21d14:	b508      	push	{r3, lr}
   21d16:	4603      	mov	r3, r0
   21d18:	4608      	mov	r0, r1
   21d1a:	b163      	cbz	r3, 21d36 <hal_hkdf_hmac_sha2_256_final+0x22>
   21d1c:	889a      	ldrh	r2, [r3, #4]
   21d1e:	b962      	cbnz	r2, 21d3a <hal_hkdf_hmac_sha2_256_final+0x26>
   21d20:	785a      	ldrb	r2, [r3, #1]
   21d22:	2a01      	cmp	r2, #1
   21d24:	d10c      	bne.n	21d40 <hal_hkdf_hmac_sha2_256_final+0x2c>
   21d26:	68db      	ldr	r3, [r3, #12]
   21d28:	b913      	cbnz	r3, 21d30 <hal_hkdf_hmac_sha2_256_final+0x1c>
   21d2a:	f002 fa85 	bl	24238 <hal_crypto_hmac_sha2_256_final>
   21d2e:	bd08      	pop	{r3, pc}
   21d30:	f002 fadc 	bl	242ec <hal_crypto_hmac_sha2_256_sk_final>
   21d34:	e7fb      	b.n	21d2e <hal_hkdf_hmac_sha2_256_final+0x1a>
   21d36:	2003      	movs	r0, #3
   21d38:	e7f9      	b.n	21d2e <hal_hkdf_hmac_sha2_256_final+0x1a>
   21d3a:	f06f 0009 	mvn.w	r0, #9
   21d3e:	e7f6      	b.n	21d2e <hal_hkdf_hmac_sha2_256_final+0x1a>
   21d40:	f06f 000a 	mvn.w	r0, #10
   21d44:	e7f3      	b.n	21d2e <hal_hkdf_hmac_sha2_256_final+0x1a>
	...

00021d48 <hal_hkdf_hook_operate_f>:
   21d48:	4603      	mov	r3, r0
   21d4a:	480b      	ldr	r0, [pc, #44]	; (21d78 <hal_hkdf_hook_operate_f+0x30>)
   21d4c:	b570      	push	{r4, r5, r6, lr}
   21d4e:	4614      	mov	r4, r2
   21d50:	7802      	ldrb	r2, [r0, #0]
   21d52:	460e      	mov	r6, r1
   21d54:	2a01      	cmp	r2, #1
   21d56:	d10d      	bne.n	21d74 <hal_hkdf_hook_operate_f+0x2c>
   21d58:	4d08      	ldr	r5, [pc, #32]	; (21d7c <hal_hkdf_hook_operate_f+0x34>)
   21d5a:	4619      	mov	r1, r3
   21d5c:	682a      	ldr	r2, [r5, #0]
   21d5e:	4790      	blx	r2
   21d60:	686b      	ldr	r3, [r5, #4]
   21d62:	4631      	mov	r1, r6
   21d64:	4804      	ldr	r0, [pc, #16]	; (21d78 <hal_hkdf_hook_operate_f+0x30>)
   21d66:	4798      	blx	r3
   21d68:	4803      	ldr	r0, [pc, #12]	; (21d78 <hal_hkdf_hook_operate_f+0x30>)
   21d6a:	68ab      	ldr	r3, [r5, #8]
   21d6c:	4621      	mov	r1, r4
   21d6e:	4798      	blx	r3
   21d70:	2000      	movs	r0, #0
   21d72:	bd70      	pop	{r4, r5, r6, pc}
   21d74:	2006      	movs	r0, #6
   21d76:	e7fc      	b.n	21d72 <hal_hkdf_hook_operate_f+0x2a>
   21d78:	00018bc0 	.word	0x00018bc0
   21d7c:	10001070 	.word	0x10001070

00021d80 <hal_hkdf_init>:
   21d80:	e92d 41f0 	stmdb	sp!, {r4, r5, r6, r7, r8, lr}
   21d84:	460d      	mov	r5, r1
   21d86:	4616      	mov	r6, r2
   21d88:	4604      	mov	r4, r0
   21d8a:	2800      	cmp	r0, #0
   21d8c:	d03b      	beq.n	21e06 <hal_hkdf_init+0x86>
   21d8e:	f44f 7290 	mov.w	r2, #288	; 0x120
   21d92:	2100      	movs	r1, #0
   21d94:	f00a fd40 	bl	2c818 <__wrap_memset>
   21d98:	0c2b      	lsrs	r3, r5, #16
   21d9a:	b2af      	uxth	r7, r5
   21d9c:	ea4f 4815 	mov.w	r8, r5, lsr #16
   21da0:	d113      	bne.n	21dca <hal_hkdf_init+0x4a>
   21da2:	f002 f85f 	bl	23e64 <hal_crypto_engine_chk_init>
   21da6:	2801      	cmp	r0, #1
   21da8:	d00b      	beq.n	21dc2 <hal_hkdf_init+0x42>
   21daa:	f002 f897 	bl	23edc <hal_crypto_engine_init>
   21dae:	b140      	cbz	r0, 21dc2 <hal_hkdf_init+0x42>
   21db0:	4b16      	ldr	r3, [pc, #88]	; (21e0c <hal_hkdf_init+0x8c>)
   21db2:	781b      	ldrb	r3, [r3, #0]
   21db4:	b11b      	cbz	r3, 21dbe <hal_hkdf_init+0x3e>
   21db6:	4b16      	ldr	r3, [pc, #88]	; (21e10 <hal_hkdf_init+0x90>)
   21db8:	4816      	ldr	r0, [pc, #88]	; (21e14 <hal_hkdf_init+0x94>)
   21dba:	69db      	ldr	r3, [r3, #28]
   21dbc:	4798      	blx	r3
   21dbe:	2005      	movs	r0, #5
   21dc0:	e01f      	b.n	21e02 <hal_hkdf_init+0x82>
   21dc2:	2301      	movs	r3, #1
   21dc4:	7063      	strb	r3, [r4, #1]
   21dc6:	2300      	movs	r3, #0
   21dc8:	60a3      	str	r3, [r4, #8]
   21dca:	b2ad      	uxth	r5, r5
   21dcc:	f8a4 8004 	strh.w	r8, [r4, #4]
   21dd0:	b14d      	cbz	r5, 21de6 <hal_hkdf_init+0x66>
   21dd2:	3d01      	subs	r5, #1
   21dd4:	2d01      	cmp	r5, #1
   21dd6:	d90b      	bls.n	21df0 <hal_hkdf_init+0x70>
   21dd8:	2320      	movs	r3, #32
   21dda:	2700      	movs	r7, #0
   21ddc:	64e3      	str	r3, [r4, #76]	; 0x4c
   21dde:	64a3      	str	r3, [r4, #72]	; 0x48
   21de0:	e9c4 3308 	strd	r3, r3, [r4, #32]
   21de4:	e004      	b.n	21df0 <hal_hkdf_init+0x70>
   21de6:	2320      	movs	r3, #32
   21de8:	64e3      	str	r3, [r4, #76]	; 0x4c
   21dea:	64a3      	str	r3, [r4, #72]	; 0x48
   21dec:	e9c4 3308 	strd	r3, r3, [r4, #32]
   21df0:	2301      	movs	r3, #1
   21df2:	4a09      	ldr	r2, [pc, #36]	; (21e18 <hal_hkdf_init+0x98>)
   21df4:	4909      	ldr	r1, [pc, #36]	; (21e1c <hal_hkdf_init+0x9c>)
   21df6:	480a      	ldr	r0, [pc, #40]	; (21e20 <hal_hkdf_init+0xa0>)
   21df8:	80e7      	strh	r7, [r4, #6]
   21dfa:	70a6      	strb	r6, [r4, #2]
   21dfc:	7023      	strb	r3, [r4, #0]
   21dfe:	f7ff ffa3 	bl	21d48 <hal_hkdf_hook_operate_f>
   21e02:	e8bd 81f0 	ldmia.w	sp!, {r4, r5, r6, r7, r8, pc}
   21e06:	2003      	movs	r0, #3
   21e08:	e7fb      	b.n	21e02 <hal_hkdf_init+0x82>
   21e0a:	bf00      	nop
   21e0c:	0001a2b0 	.word	0x0001a2b0
   21e10:	100bc800 	.word	0x100bc800
   21e14:	20101974 	.word	0x20101974
   21e18:	00021d15 	.word	0x00021d15
   21e1c:	00021ceb 	.word	0x00021ceb
   21e20:	00021cb5 	.word	0x00021cb5

00021e24 <hal_hkdf_hmac_init>:
   21e24:	ea41 4100 	orr.w	r1, r1, r0, lsl #16
   21e28:	2200      	movs	r2, #0
   21e2a:	4802      	ldr	r0, [pc, #8]	; (21e34 <hal_hkdf_hmac_init+0x10>)
   21e2c:	b508      	push	{r3, lr}
   21e2e:	f7ff ffa7 	bl	21d80 <hal_hkdf_init>
   21e32:	bd08      	pop	{r3, pc}
   21e34:	00018bc0 	.word	0x00018bc0

00021e38 <hal_hkdf_hmac_sha256_secure_init>:
   21e38:	2100      	movs	r1, #0
   21e3a:	b508      	push	{r3, lr}
   21e3c:	f7ff fff2 	bl	21e24 <hal_hkdf_hmac_init>
   21e40:	bd08      	pop	{r3, pc}
	...

00021e44 <hal_hkdf_extract_secure_all>:
   21e44:	4613      	mov	r3, r2
   21e46:	b510      	push	{r4, lr}
   21e48:	b132      	cbz	r2, 21e58 <hal_hkdf_extract_secure_all+0x14>
   21e4a:	4c04      	ldr	r4, [pc, #16]	; (21e5c <hal_hkdf_extract_secure_all+0x18>)
   21e4c:	460a      	mov	r2, r1
   21e4e:	4601      	mov	r1, r0
   21e50:	4803      	ldr	r0, [pc, #12]	; (21e60 <hal_hkdf_extract_secure_all+0x1c>)
   21e52:	68e4      	ldr	r4, [r4, #12]
   21e54:	47a0      	blx	r4
   21e56:	bd10      	pop	{r4, pc}
   21e58:	2003      	movs	r0, #3
   21e5a:	e7fc      	b.n	21e56 <hal_hkdf_extract_secure_all+0x12>
   21e5c:	10001070 	.word	0x10001070
   21e60:	00018bc0 	.word	0x00018bc0

00021e64 <hal_hkdf_expand_secure_all>:
   21e64:	4613      	mov	r3, r2
   21e66:	b510      	push	{r4, lr}
   21e68:	b132      	cbz	r2, 21e78 <hal_hkdf_expand_secure_all+0x14>
   21e6a:	4c04      	ldr	r4, [pc, #16]	; (21e7c <hal_hkdf_expand_secure_all+0x18>)
   21e6c:	460a      	mov	r2, r1
   21e6e:	4601      	mov	r1, r0
   21e70:	4803      	ldr	r0, [pc, #12]	; (21e80 <hal_hkdf_expand_secure_all+0x1c>)
   21e72:	6924      	ldr	r4, [r4, #16]
   21e74:	47a0      	blx	r4
   21e76:	bd10      	pop	{r4, pc}
   21e78:	2003      	movs	r0, #3
   21e7a:	e7fc      	b.n	21e76 <hal_hkdf_expand_secure_all+0x12>
   21e7c:	10001070 	.word	0x10001070
   21e80:	00018bc0 	.word	0x00018bc0

00021e84 <hal_trng_sec_init>:
   21e84:	b508      	push	{r3, lr}
   21e86:	f00a fda9 	bl	2c9dc <hal_sys_get_rom_ver>
   21e8a:	b2c0      	uxtb	r0, r0
   21e8c:	2802      	cmp	r0, #2
   21e8e:	4807      	ldr	r0, [pc, #28]	; (21eac <hal_trng_sec_init+0x28>)
   21e90:	d906      	bls.n	21ea0 <hal_trng_sec_init+0x1c>
   21e92:	7903      	ldrb	r3, [r0, #4]
   21e94:	2b01      	cmp	r3, #1
   21e96:	d006      	beq.n	21ea6 <hal_trng_sec_init+0x22>
   21e98:	4b05      	ldr	r3, [pc, #20]	; (21eb0 <hal_trng_sec_init+0x2c>)
   21e9a:	681b      	ldr	r3, [r3, #0]
   21e9c:	4798      	blx	r3
   21e9e:	bd08      	pop	{r3, pc}
   21ea0:	f00c f914 	bl	2e0cc <hal_rtl_trng_sec_init_patch>
   21ea4:	e7fb      	b.n	21e9e <hal_trng_sec_init+0x1a>
   21ea6:	2000      	movs	r0, #0
   21ea8:	e7f9      	b.n	21e9e <hal_trng_sec_init+0x1a>
   21eaa:	bf00      	nop
   21eac:	00018ce0 	.word	0x00018ce0
   21eb0:	10001240 	.word	0x10001240

00021eb4 <hal_trng_sec_deinit>:
   21eb4:	b508      	push	{r3, lr}
   21eb6:	f00a fd91 	bl	2c9dc <hal_sys_get_rom_ver>
   21eba:	b2c0      	uxtb	r0, r0
   21ebc:	2802      	cmp	r0, #2
   21ebe:	4807      	ldr	r0, [pc, #28]	; (21edc <hal_trng_sec_deinit+0x28>)
   21ec0:	d906      	bls.n	21ed0 <hal_trng_sec_deinit+0x1c>
   21ec2:	7903      	ldrb	r3, [r0, #4]
   21ec4:	2b01      	cmp	r3, #1
   21ec6:	d106      	bne.n	21ed6 <hal_trng_sec_deinit+0x22>
   21ec8:	4b05      	ldr	r3, [pc, #20]	; (21ee0 <hal_trng_sec_deinit+0x2c>)
   21eca:	685b      	ldr	r3, [r3, #4]
   21ecc:	4798      	blx	r3
   21ece:	bd08      	pop	{r3, pc}
   21ed0:	f00c f91e 	bl	2e110 <hal_rtl_trng_sec_deinit_patch>
   21ed4:	e7fb      	b.n	21ece <hal_trng_sec_deinit+0x1a>
   21ed6:	2011      	movs	r0, #17
   21ed8:	e7f9      	b.n	21ece <hal_trng_sec_deinit+0x1a>
   21eda:	bf00      	nop
   21edc:	00018ce0 	.word	0x00018ce0
   21ee0:	10001240 	.word	0x10001240

00021ee4 <hal_trng_sec_set_clk>:
   21ee4:	b507      	push	{r0, r1, r2, lr}
   21ee6:	9001      	str	r0, [sp, #4]
   21ee8:	f00a fd78 	bl	2c9dc <hal_sys_get_rom_ver>
   21eec:	b2c0      	uxtb	r0, r0
   21eee:	9901      	ldr	r1, [sp, #4]
   21ef0:	2802      	cmp	r0, #2
   21ef2:	d906      	bls.n	21f02 <hal_trng_sec_set_clk+0x1e>
   21ef4:	4b05      	ldr	r3, [pc, #20]	; (21f0c <hal_trng_sec_set_clk+0x28>)
   21ef6:	4806      	ldr	r0, [pc, #24]	; (21f10 <hal_trng_sec_set_clk+0x2c>)
   21ef8:	689b      	ldr	r3, [r3, #8]
   21efa:	4798      	blx	r3
   21efc:	b003      	add	sp, #12
   21efe:	f85d fb04 	ldr.w	pc, [sp], #4
   21f02:	4803      	ldr	r0, [pc, #12]	; (21f10 <hal_trng_sec_set_clk+0x2c>)
   21f04:	f00c f8ca 	bl	2e09c <hal_rtl_trng_sec_set_clk_patch>
   21f08:	e7f8      	b.n	21efc <hal_trng_sec_set_clk+0x18>
   21f0a:	bf00      	nop
   21f0c:	10001240 	.word	0x10001240
   21f10:	00018ce0 	.word	0x00018ce0

00021f14 <hal_trng_sec_swrst_en>:
   21f14:	b508      	push	{r3, lr}
   21f16:	f00a fd61 	bl	2c9dc <hal_sys_get_rom_ver>
   21f1a:	b2c0      	uxtb	r0, r0
   21f1c:	2802      	cmp	r0, #2
   21f1e:	d904      	bls.n	21f2a <hal_trng_sec_swrst_en+0x16>
   21f20:	4b04      	ldr	r3, [pc, #16]	; (21f34 <hal_trng_sec_swrst_en+0x20>)
   21f22:	4805      	ldr	r0, [pc, #20]	; (21f38 <hal_trng_sec_swrst_en+0x24>)
   21f24:	68db      	ldr	r3, [r3, #12]
   21f26:	4798      	blx	r3
   21f28:	bd08      	pop	{r3, pc}
   21f2a:	4803      	ldr	r0, [pc, #12]	; (21f38 <hal_trng_sec_swrst_en+0x24>)
   21f2c:	f00c f86e 	bl	2e00c <hal_rtl_trng_sec_swrst_en_patch>
   21f30:	e7fa      	b.n	21f28 <hal_trng_sec_swrst_en+0x14>
   21f32:	bf00      	nop
   21f34:	10001240 	.word	0x10001240
   21f38:	00018ce0 	.word	0x00018ce0

00021f3c <hal_trng_sec_get_rand>:
   21f3c:	b508      	push	{r3, lr}
   21f3e:	f00a fd4d 	bl	2c9dc <hal_sys_get_rom_ver>
   21f42:	b2c0      	uxtb	r0, r0
   21f44:	2802      	cmp	r0, #2
   21f46:	4807      	ldr	r0, [pc, #28]	; (21f64 <hal_trng_sec_get_rand+0x28>)
   21f48:	d906      	bls.n	21f58 <hal_trng_sec_get_rand+0x1c>
   21f4a:	7903      	ldrb	r3, [r0, #4]
   21f4c:	2b01      	cmp	r3, #1
   21f4e:	d106      	bne.n	21f5e <hal_trng_sec_get_rand+0x22>
   21f50:	4b05      	ldr	r3, [pc, #20]	; (21f68 <hal_trng_sec_get_rand+0x2c>)
   21f52:	691b      	ldr	r3, [r3, #16]
   21f54:	4798      	blx	r3
   21f56:	bd08      	pop	{r3, pc}
   21f58:	f00c f8ef 	bl	2e13a <hal_rtl_trng_sec_get_rand_patch>
   21f5c:	e7fb      	b.n	21f56 <hal_trng_sec_get_rand+0x1a>
   21f5e:	2000      	movs	r0, #0
   21f60:	e7f9      	b.n	21f56 <hal_trng_sec_get_rand+0x1a>
   21f62:	bf00      	nop
   21f64:	00018ce0 	.word	0x00018ce0
   21f68:	10001240 	.word	0x10001240

00021f6c <hal_trng_sec_load_default_setting>:
   21f6c:	b507      	push	{r0, r1, r2, lr}
   21f6e:	9001      	str	r0, [sp, #4]
   21f70:	f00a fd34 	bl	2c9dc <hal_sys_get_rom_ver>
   21f74:	b2c0      	uxtb	r0, r0
   21f76:	9901      	ldr	r1, [sp, #4]
   21f78:	2802      	cmp	r0, #2
   21f7a:	4808      	ldr	r0, [pc, #32]	; (21f9c <hal_trng_sec_load_default_setting+0x30>)
   21f7c:	d908      	bls.n	21f90 <hal_trng_sec_load_default_setting+0x24>
   21f7e:	7903      	ldrb	r3, [r0, #4]
   21f80:	2b01      	cmp	r3, #1
   21f82:	d108      	bne.n	21f96 <hal_trng_sec_load_default_setting+0x2a>
   21f84:	4b06      	ldr	r3, [pc, #24]	; (21fa0 <hal_trng_sec_load_default_setting+0x34>)
   21f86:	6a1b      	ldr	r3, [r3, #32]
   21f88:	4798      	blx	r3
   21f8a:	b003      	add	sp, #12
   21f8c:	f85d fb04 	ldr.w	pc, [sp], #4
   21f90:	f00c f85a 	bl	2e048 <hal_rtl_trng_sec_load_default_setting_patch>
   21f94:	e7f9      	b.n	21f8a <hal_trng_sec_load_default_setting+0x1e>
   21f96:	2011      	movs	r0, #17
   21f98:	e7f7      	b.n	21f8a <hal_trng_sec_load_default_setting+0x1e>
   21f9a:	bf00      	nop
   21f9c:	00018ce0 	.word	0x00018ce0
   21fa0:	10001240 	.word	0x10001240

00021fa4 <hal_wdt_enable>:
   21fa4:	b508      	push	{r3, lr}
   21fa6:	4b02      	ldr	r3, [pc, #8]	; (21fb0 <hal_wdt_enable+0xc>)
   21fa8:	689b      	ldr	r3, [r3, #8]
   21faa:	4798      	blx	r3
   21fac:	bd08      	pop	{r3, pc}
   21fae:	bf00      	nop
   21fb0:	10000b00 	.word	0x10000b00

00021fb4 <hal_wdt_refresh>:
   21fb4:	b508      	push	{r3, lr}
   21fb6:	4b02      	ldr	r3, [pc, #8]	; (21fc0 <hal_wdt_refresh+0xc>)
   21fb8:	691b      	ldr	r3, [r3, #16]
   21fba:	4798      	blx	r3
   21fbc:	bd08      	pop	{r3, pc}
   21fbe:	bf00      	nop
   21fc0:	10000b00 	.word	0x10000b00

00021fc4 <hal_wdt_aon_enable>:
   21fc4:	b508      	push	{r3, lr}
   21fc6:	4b02      	ldr	r3, [pc, #8]	; (21fd0 <hal_wdt_aon_enable+0xc>)
   21fc8:	6a1b      	ldr	r3, [r3, #32]
   21fca:	4798      	blx	r3
   21fcc:	bd08      	pop	{r3, pc}
   21fce:	bf00      	nop
   21fd0:	10000b00 	.word	0x10000b00

00021fd4 <hal_wdt_aon_disable>:
   21fd4:	b508      	push	{r3, lr}
   21fd6:	4b02      	ldr	r3, [pc, #8]	; (21fe0 <hal_wdt_aon_disable+0xc>)
   21fd8:	6a5b      	ldr	r3, [r3, #36]	; 0x24
   21fda:	4798      	blx	r3
   21fdc:	bd08      	pop	{r3, pc}
   21fde:	bf00      	nop
   21fe0:	10000b00 	.word	0x10000b00

00021fe4 <hal_wdt_check_wdt_en>:
   21fe4:	2811      	cmp	r0, #17
   21fe6:	b082      	sub	sp, #8
   21fe8:	d10b      	bne.n	22002 <hal_wdt_check_wdt_en+0x1e>
   21fea:	4b0b      	ldr	r3, [pc, #44]	; (22018 <hal_wdt_check_wdt_en+0x34>)
   21fec:	2201      	movs	r2, #1
   21fee:	f8d3 30b4 	ldr.w	r3, [r3, #180]	; 0xb4
   21ff2:	9301      	str	r3, [sp, #4]
   21ff4:	2300      	movs	r3, #0
   21ff6:	9801      	ldr	r0, [sp, #4]
   21ff8:	4010      	ands	r0, r2
   21ffa:	40d8      	lsrs	r0, r3
   21ffc:	b2c0      	uxtb	r0, r0
   21ffe:	b002      	add	sp, #8
   22000:	4770      	bx	lr
   22002:	2812      	cmp	r0, #18
   22004:	d106      	bne.n	22014 <hal_wdt_check_wdt_en+0x30>
   22006:	4b05      	ldr	r3, [pc, #20]	; (2201c <hal_wdt_check_wdt_en+0x38>)
   22008:	f44f 3280 	mov.w	r2, #65536	; 0x10000
   2200c:	681b      	ldr	r3, [r3, #0]
   2200e:	9301      	str	r3, [sp, #4]
   22010:	2310      	movs	r3, #16
   22012:	e7f0      	b.n	21ff6 <hal_wdt_check_wdt_en+0x12>
   22014:	2000      	movs	r0, #0
   22016:	e7f2      	b.n	21ffe <hal_wdt_check_wdt_en+0x1a>
   22018:	40009000 	.word	0x40009000
   2201c:	50002c00 	.word	0x50002c00

00022020 <hal_dramc_ftend_init>:
   22020:	2300      	movs	r3, #0
   22022:	4a18      	ldr	r2, [pc, #96]	; (22084 <hal_dramc_ftend_init+0x64>)
   22024:	f8c0 3818 	str.w	r3, [r0, #2072]	; 0x818
   22028:	f8c0 3858 	str.w	r3, [r0, #2136]	; 0x858
   2202c:	f8c0 3898 	str.w	r3, [r0, #2200]	; 0x898
   22030:	f8c0 38d8 	str.w	r3, [r0, #2264]	; 0x8d8
   22034:	f8c0 3918 	str.w	r3, [r0, #2328]	; 0x918
   22038:	f8c0 3958 	str.w	r3, [r0, #2392]	; 0x958
   2203c:	2308      	movs	r3, #8
   2203e:	f8c0 3104 	str.w	r3, [r0, #260]	; 0x104
   22042:	4b11      	ldr	r3, [pc, #68]	; (22088 <hal_dramc_ftend_init+0x68>)
   22044:	f8c0 3800 	str.w	r3, [r0, #2048]	; 0x800
   22048:	f8c0 3804 	str.w	r3, [r0, #2052]	; 0x804
   2204c:	f8c0 3840 	str.w	r3, [r0, #2112]	; 0x840
   22050:	f8c0 3844 	str.w	r3, [r0, #2116]	; 0x844
   22054:	f8c0 3880 	str.w	r3, [r0, #2176]	; 0x880
   22058:	f8c0 3884 	str.w	r3, [r0, #2180]	; 0x884
   2205c:	f8c0 38c0 	str.w	r3, [r0, #2240]	; 0x8c0
   22060:	f8c0 38c4 	str.w	r3, [r0, #2244]	; 0x8c4
   22064:	f8c0 3900 	str.w	r3, [r0, #2304]	; 0x900
   22068:	f8c0 3904 	str.w	r3, [r0, #2308]	; 0x904
   2206c:	f8c0 3940 	str.w	r3, [r0, #2368]	; 0x940
   22070:	f8c0 3944 	str.w	r3, [r0, #2372]	; 0x944
   22074:	f04f 2340 	mov.w	r3, #1073758208	; 0x40004000
   22078:	f8c3 2414 	str.w	r2, [r3, #1044]	; 0x414
   2207c:	f8c3 2418 	str.w	r2, [r3, #1048]	; 0x418
   22080:	4770      	bx	lr
   22082:	bf00      	nop
   22084:	00fff0ff 	.word	0x00fff0ff
   22088:	02100a09 	.word	0x02100a09

0002208c <hal_dramc_perf_tune>:
   2208c:	680b      	ldr	r3, [r1, #0]
   2208e:	e92d 4ff0 	stmdb	sp!, {r4, r5, r6, r7, r8, r9, sl, fp, lr}
   22092:	b0c3      	sub	sp, #268	; 0x10c
   22094:	799b      	ldrb	r3, [r3, #6]
   22096:	9001      	str	r0, [sp, #4]
   22098:	2b00      	cmp	r3, #0
   2209a:	f000 827c 	beq.w	22596 <hal_dramc_perf_tune+0x50a>
   2209e:	2b01      	cmp	r3, #1
   220a0:	d003      	beq.n	220aa <hal_dramc_perf_tune+0x1e>
   220a2:	2b03      	cmp	r3, #3
   220a4:	bf14      	ite	ne
   220a6:	2302      	movne	r3, #2
   220a8:	2300      	moveq	r3, #0
   220aa:	68ca      	ldr	r2, [r1, #12]
   220ac:	9217      	str	r2, [sp, #92]	; 0x5c
   220ae:	6ed2      	ldr	r2, [r2, #108]	; 0x6c
   220b0:	7811      	ldrb	r1, [r2, #0]
   220b2:	9122      	str	r1, [sp, #136]	; 0x88
   220b4:	7851      	ldrb	r1, [r2, #1]
   220b6:	9123      	str	r1, [sp, #140]	; 0x8c
   220b8:	7891      	ldrb	r1, [r2, #2]
   220ba:	9124      	str	r1, [sp, #144]	; 0x90
   220bc:	78d1      	ldrb	r1, [r2, #3]
   220be:	9125      	str	r1, [sp, #148]	; 0x94
   220c0:	7911      	ldrb	r1, [r2, #4]
   220c2:	9126      	str	r1, [sp, #152]	; 0x98
   220c4:	7951      	ldrb	r1, [r2, #5]
   220c6:	9127      	str	r1, [sp, #156]	; 0x9c
   220c8:	7991      	ldrb	r1, [r2, #6]
   220ca:	9128      	str	r1, [sp, #160]	; 0xa0
   220cc:	79d1      	ldrb	r1, [r2, #7]
   220ce:	9129      	str	r1, [sp, #164]	; 0xa4
   220d0:	7a11      	ldrb	r1, [r2, #8]
   220d2:	912a      	str	r1, [sp, #168]	; 0xa8
   220d4:	7a51      	ldrb	r1, [r2, #9]
   220d6:	912b      	str	r1, [sp, #172]	; 0xac
   220d8:	7a91      	ldrb	r1, [r2, #10]
   220da:	912c      	str	r1, [sp, #176]	; 0xb0
   220dc:	7ad1      	ldrb	r1, [r2, #11]
   220de:	912d      	str	r1, [sp, #180]	; 0xb4
   220e0:	7b11      	ldrb	r1, [r2, #12]
   220e2:	912e      	str	r1, [sp, #184]	; 0xb8
   220e4:	7b51      	ldrb	r1, [r2, #13]
   220e6:	912f      	str	r1, [sp, #188]	; 0xbc
   220e8:	7b91      	ldrb	r1, [r2, #14]
   220ea:	9130      	str	r1, [sp, #192]	; 0xc0
   220ec:	7bd1      	ldrb	r1, [r2, #15]
   220ee:	9131      	str	r1, [sp, #196]	; 0xc4
   220f0:	7c11      	ldrb	r1, [r2, #16]
   220f2:	9132      	str	r1, [sp, #200]	; 0xc8
   220f4:	7c51      	ldrb	r1, [r2, #17]
   220f6:	9133      	str	r1, [sp, #204]	; 0xcc
   220f8:	7c91      	ldrb	r1, [r2, #18]
   220fa:	9134      	str	r1, [sp, #208]	; 0xd0
   220fc:	7cd1      	ldrb	r1, [r2, #19]
   220fe:	9135      	str	r1, [sp, #212]	; 0xd4
   22100:	7d11      	ldrb	r1, [r2, #20]
   22102:	9136      	str	r1, [sp, #216]	; 0xd8
   22104:	7d51      	ldrb	r1, [r2, #21]
   22106:	9137      	str	r1, [sp, #220]	; 0xdc
   22108:	7d91      	ldrb	r1, [r2, #22]
   2210a:	9138      	str	r1, [sp, #224]	; 0xe0
   2210c:	7dd1      	ldrb	r1, [r2, #23]
   2210e:	9139      	str	r1, [sp, #228]	; 0xe4
   22110:	7e11      	ldrb	r1, [r2, #24]
   22112:	913a      	str	r1, [sp, #232]	; 0xe8
   22114:	7e51      	ldrb	r1, [r2, #25]
   22116:	913b      	str	r1, [sp, #236]	; 0xec
   22118:	7e91      	ldrb	r1, [r2, #26]
   2211a:	913c      	str	r1, [sp, #240]	; 0xf0
   2211c:	7ed1      	ldrb	r1, [r2, #27]
   2211e:	913d      	str	r1, [sp, #244]	; 0xf4
   22120:	7f11      	ldrb	r1, [r2, #28]
   22122:	913e      	str	r1, [sp, #248]	; 0xf8
   22124:	7f51      	ldrb	r1, [r2, #29]
   22126:	913f      	str	r1, [sp, #252]	; 0xfc
   22128:	7f91      	ldrb	r1, [r2, #30]
   2212a:	9140      	str	r1, [sp, #256]	; 0x100
   2212c:	2100      	movs	r1, #0
   2212e:	7fd2      	ldrb	r2, [r2, #31]
   22130:	9241      	str	r2, [sp, #260]	; 0x104
   22132:	2220      	movs	r2, #32
   22134:	4610      	mov	r0, r2
   22136:	4615      	mov	r5, r2
   22138:	4616      	mov	r6, r2
   2213a:	4617      	mov	r7, r2
   2213c:	4694      	mov	ip, r2
   2213e:	4696      	mov	lr, r2
   22140:	4690      	mov	r8, r2
   22142:	4691      	mov	r9, r2
   22144:	4692      	mov	sl, r2
   22146:	4693      	mov	fp, r2
   22148:	9208      	str	r2, [sp, #32]
   2214a:	e9cd 2215 	strd	r2, r2, [sp, #84]	; 0x54
   2214e:	e9cd 2213 	strd	r2, r2, [sp, #76]	; 0x4c
   22152:	e9cd 2211 	strd	r2, r2, [sp, #68]	; 0x44
   22156:	e9cd 220f 	strd	r2, r2, [sp, #60]	; 0x3c
   2215a:	e9cd 220d 	strd	r2, r2, [sp, #52]	; 0x34
   2215e:	e9cd 220b 	strd	r2, r2, [sp, #44]	; 0x2c
   22162:	e9cd 2209 	strd	r2, r2, [sp, #36]	; 0x24
   22166:	e9cd 2206 	strd	r2, r2, [sp, #24]
   2216a:	e9cd 2204 	strd	r2, r2, [sp, #16]
   2216e:	e9cd 2202 	strd	r2, r2, [sp, #8]
   22172:	ac22      	add	r4, sp, #136	; 0x88
   22174:	f854 4021 	ldr.w	r4, [r4, r1, lsl #2]
   22178:	2c00      	cmp	r4, #0
   2217a:	f000 820e 	beq.w	2259a <hal_dramc_perf_tune+0x50e>
   2217e:	2c01      	cmp	r4, #1
   22180:	f000 820d 	beq.w	2259e <hal_dramc_perf_tune+0x512>
   22184:	2c02      	cmp	r4, #2
   22186:	f000 820c 	beq.w	225a2 <hal_dramc_perf_tune+0x516>
   2218a:	2c03      	cmp	r4, #3
   2218c:	f000 820b 	beq.w	225a6 <hal_dramc_perf_tune+0x51a>
   22190:	2c04      	cmp	r4, #4
   22192:	f000 820a 	beq.w	225aa <hal_dramc_perf_tune+0x51e>
   22196:	2c05      	cmp	r4, #5
   22198:	f000 8209 	beq.w	225ae <hal_dramc_perf_tune+0x522>
   2219c:	2c06      	cmp	r4, #6
   2219e:	f000 8208 	beq.w	225b2 <hal_dramc_perf_tune+0x526>
   221a2:	2c07      	cmp	r4, #7
   221a4:	f000 8207 	beq.w	225b6 <hal_dramc_perf_tune+0x52a>
   221a8:	2c08      	cmp	r4, #8
   221aa:	f000 8206 	beq.w	225ba <hal_dramc_perf_tune+0x52e>
   221ae:	2c09      	cmp	r4, #9
   221b0:	f000 8205 	beq.w	225be <hal_dramc_perf_tune+0x532>
   221b4:	2c0a      	cmp	r4, #10
   221b6:	f000 8204 	beq.w	225c2 <hal_dramc_perf_tune+0x536>
   221ba:	2c0b      	cmp	r4, #11
   221bc:	f000 8203 	beq.w	225c6 <hal_dramc_perf_tune+0x53a>
   221c0:	2c0c      	cmp	r4, #12
   221c2:	f000 8202 	beq.w	225ca <hal_dramc_perf_tune+0x53e>
   221c6:	2c0d      	cmp	r4, #13
   221c8:	f000 8201 	beq.w	225ce <hal_dramc_perf_tune+0x542>
   221cc:	2c0e      	cmp	r4, #14
   221ce:	f000 8200 	beq.w	225d2 <hal_dramc_perf_tune+0x546>
   221d2:	2c0f      	cmp	r4, #15
   221d4:	f000 81ff 	beq.w	225d6 <hal_dramc_perf_tune+0x54a>
   221d8:	2c10      	cmp	r4, #16
   221da:	f000 81fe 	beq.w	225da <hal_dramc_perf_tune+0x54e>
   221de:	2c11      	cmp	r4, #17
   221e0:	f000 81fd 	beq.w	225de <hal_dramc_perf_tune+0x552>
   221e4:	2c12      	cmp	r4, #18
   221e6:	f000 81fc 	beq.w	225e2 <hal_dramc_perf_tune+0x556>
   221ea:	2c13      	cmp	r4, #19
   221ec:	f000 81fb 	beq.w	225e6 <hal_dramc_perf_tune+0x55a>
   221f0:	2c14      	cmp	r4, #20
   221f2:	f000 81fa 	beq.w	225ea <hal_dramc_perf_tune+0x55e>
   221f6:	2c15      	cmp	r4, #21
   221f8:	f000 81f9 	beq.w	225ee <hal_dramc_perf_tune+0x562>
   221fc:	2c16      	cmp	r4, #22
   221fe:	f000 81f8 	beq.w	225f2 <hal_dramc_perf_tune+0x566>
   22202:	2c17      	cmp	r4, #23
   22204:	f000 81f7 	beq.w	225f6 <hal_dramc_perf_tune+0x56a>
   22208:	2c18      	cmp	r4, #24
   2220a:	f000 81f6 	beq.w	225fa <hal_dramc_perf_tune+0x56e>
   2220e:	2c19      	cmp	r4, #25
   22210:	f000 81f5 	beq.w	225fe <hal_dramc_perf_tune+0x572>
   22214:	2c1a      	cmp	r4, #26
   22216:	f000 81f4 	beq.w	22602 <hal_dramc_perf_tune+0x576>
   2221a:	2c1b      	cmp	r4, #27
   2221c:	f000 81f3 	beq.w	22606 <hal_dramc_perf_tune+0x57a>
   22220:	2c1c      	cmp	r4, #28
   22222:	f000 81f2 	beq.w	2260a <hal_dramc_perf_tune+0x57e>
   22226:	2c1d      	cmp	r4, #29
   22228:	f000 81f1 	beq.w	2260e <hal_dramc_perf_tune+0x582>
   2222c:	2c1e      	cmp	r4, #30
   2222e:	f000 81f0 	beq.w	22612 <hal_dramc_perf_tune+0x586>
   22232:	2c1f      	cmp	r4, #31
   22234:	bf08      	it	eq
   22236:	4608      	moveq	r0, r1
   22238:	3101      	adds	r1, #1
   2223a:	2920      	cmp	r1, #32
   2223c:	d199      	bne.n	22172 <hal_dramc_perf_tune+0xe6>
   2223e:	f1bb 0f20 	cmp.w	fp, #32
   22242:	bf16      	itet	ne
   22244:	ebab 0b03 	subne.w	fp, fp, r3
   22248:	210f      	moveq	r1, #15
   2224a:	f1ab 0105 	subne.w	r1, fp, #5
   2224e:	f1ba 0f20 	cmp.w	sl, #32
   22252:	bf18      	it	ne
   22254:	ebaa 0a03 	subne.w	sl, sl, r3
   22258:	9118      	str	r1, [sp, #96]	; 0x60
   2225a:	bf0c      	ite	eq
   2225c:	210f      	moveq	r1, #15
   2225e:	f1aa 0106 	subne.w	r1, sl, #6
   22262:	f1b9 0f20 	cmp.w	r9, #32
   22266:	bf18      	it	ne
   22268:	eba9 0903 	subne.w	r9, r9, r3
   2226c:	9119      	str	r1, [sp, #100]	; 0x64
   2226e:	bf0c      	ite	eq
   22270:	210f      	moveq	r1, #15
   22272:	f1a9 0107 	subne.w	r1, r9, #7
   22276:	f1b8 0f20 	cmp.w	r8, #32
   2227a:	bf18      	it	ne
   2227c:	eba8 0803 	subne.w	r8, r8, r3
   22280:	911a      	str	r1, [sp, #104]	; 0x68
   22282:	bf0c      	ite	eq
   22284:	210f      	moveq	r1, #15
   22286:	f1a8 0108 	subne.w	r1, r8, #8
   2228a:	f1be 0f20 	cmp.w	lr, #32
   2228e:	bf18      	it	ne
   22290:	ebae 0e03 	subne.w	lr, lr, r3
   22294:	911b      	str	r1, [sp, #108]	; 0x6c
   22296:	bf0c      	ite	eq
   22298:	210f      	moveq	r1, #15
   2229a:	f1ae 0109 	subne.w	r1, lr, #9
   2229e:	f1bc 0f20 	cmp.w	ip, #32
   222a2:	bf18      	it	ne
   222a4:	ebac 0c03 	subne.w	ip, ip, r3
   222a8:	911c      	str	r1, [sp, #112]	; 0x70
   222aa:	bf0c      	ite	eq
   222ac:	210f      	moveq	r1, #15
   222ae:	f1ac 010a 	subne.w	r1, ip, #10
   222b2:	2f20      	cmp	r7, #32
   222b4:	bf18      	it	ne
   222b6:	1aff      	subne	r7, r7, r3
   222b8:	911d      	str	r1, [sp, #116]	; 0x74
   222ba:	bf0c      	ite	eq
   222bc:	210f      	moveq	r1, #15
   222be:	f1a7 010b 	subne.w	r1, r7, #11
   222c2:	2e20      	cmp	r6, #32
   222c4:	bf18      	it	ne
   222c6:	1af6      	subne	r6, r6, r3
   222c8:	911e      	str	r1, [sp, #120]	; 0x78
   222ca:	bf0c      	ite	eq
   222cc:	210f      	moveq	r1, #15
   222ce:	f1a6 010c 	subne.w	r1, r6, #12
   222d2:	2d20      	cmp	r5, #32
   222d4:	bf18      	it	ne
   222d6:	1aed      	subne	r5, r5, r3
   222d8:	911f      	str	r1, [sp, #124]	; 0x7c
   222da:	bf0c      	ite	eq
   222dc:	210f      	moveq	r1, #15
   222de:	f1a5 010d 	subne.w	r1, r5, #13
   222e2:	9120      	str	r1, [sp, #128]	; 0x80
   222e4:	9902      	ldr	r1, [sp, #8]
   222e6:	2920      	cmp	r1, #32
   222e8:	bf16      	itet	ne
   222ea:	1ac9      	subne	r1, r1, r3
   222ec:	210f      	moveq	r1, #15
   222ee:	390e      	subne	r1, #14
   222f0:	9102      	str	r1, [sp, #8]
   222f2:	9903      	ldr	r1, [sp, #12]
   222f4:	2920      	cmp	r1, #32
   222f6:	bf16      	itet	ne
   222f8:	1ac9      	subne	r1, r1, r3
   222fa:	210f      	moveq	r1, #15
   222fc:	390f      	subne	r1, #15
   222fe:	9103      	str	r1, [sp, #12]
   22300:	9904      	ldr	r1, [sp, #16]
   22302:	2920      	cmp	r1, #32
   22304:	bf16      	itet	ne
   22306:	1ac9      	subne	r1, r1, r3
   22308:	210f      	moveq	r1, #15
   2230a:	3910      	subne	r1, #16
   2230c:	9104      	str	r1, [sp, #16]
   2230e:	9905      	ldr	r1, [sp, #20]
   22310:	2920      	cmp	r1, #32
   22312:	bf16      	itet	ne
   22314:	1ac9      	subne	r1, r1, r3
   22316:	210f      	moveq	r1, #15
   22318:	3911      	subne	r1, #17
   2231a:	9105      	str	r1, [sp, #20]
   2231c:	9906      	ldr	r1, [sp, #24]
   2231e:	2920      	cmp	r1, #32
   22320:	bf16      	itet	ne
   22322:	1ac9      	subne	r1, r1, r3
   22324:	210f      	moveq	r1, #15
   22326:	3912      	subne	r1, #18
   22328:	9106      	str	r1, [sp, #24]
   2232a:	9907      	ldr	r1, [sp, #28]
   2232c:	2920      	cmp	r1, #32
   2232e:	bf16      	itet	ne
   22330:	1ac9      	subne	r1, r1, r3
   22332:	210f      	moveq	r1, #15
   22334:	3913      	subne	r1, #19
   22336:	2820      	cmp	r0, #32
   22338:	9107      	str	r1, [sp, #28]
   2233a:	4601      	mov	r1, r0
   2233c:	bf16      	itet	ne
   2233e:	1ac1      	subne	r1, r0, r3
   22340:	210f      	moveq	r1, #15
   22342:	3914      	subne	r1, #20
   22344:	9121      	str	r1, [sp, #132]	; 0x84
   22346:	9908      	ldr	r1, [sp, #32]
   22348:	2920      	cmp	r1, #32
   2234a:	bf16      	itet	ne
   2234c:	1ac9      	subne	r1, r1, r3
   2234e:	211f      	moveq	r1, #31
   22350:	3902      	subne	r1, #2
   22352:	9108      	str	r1, [sp, #32]
   22354:	9909      	ldr	r1, [sp, #36]	; 0x24
   22356:	2920      	cmp	r1, #32
   22358:	bf16      	itet	ne
   2235a:	1ac9      	subne	r1, r1, r3
   2235c:	211f      	moveq	r1, #31
   2235e:	3902      	subne	r1, #2
   22360:	9109      	str	r1, [sp, #36]	; 0x24
   22362:	990a      	ldr	r1, [sp, #40]	; 0x28
   22364:	2920      	cmp	r1, #32
   22366:	bf16      	itet	ne
   22368:	1ac9      	subne	r1, r1, r3
   2236a:	211f      	moveq	r1, #31
   2236c:	3902      	subne	r1, #2
   2236e:	910a      	str	r1, [sp, #40]	; 0x28
   22370:	990b      	ldr	r1, [sp, #44]	; 0x2c
   22372:	2920      	cmp	r1, #32
   22374:	bf16      	itet	ne
   22376:	1ac9      	subne	r1, r1, r3
   22378:	210f      	moveq	r1, #15
   2237a:	3902      	subne	r1, #2
   2237c:	910b      	str	r1, [sp, #44]	; 0x2c
   2237e:	990c      	ldr	r1, [sp, #48]	; 0x30
   22380:	2920      	cmp	r1, #32
   22382:	bf18      	it	ne
   22384:	eba1 0b03 	subne.w	fp, r1, r3
   22388:	990d      	ldr	r1, [sp, #52]	; 0x34
   2238a:	bf0c      	ite	eq
   2238c:	f04f 0b0f 	moveq.w	fp, #15
   22390:	f1ab 0b03 	subne.w	fp, fp, #3
   22394:	2920      	cmp	r1, #32
   22396:	bf18      	it	ne
   22398:	eba1 0a03 	subne.w	sl, r1, r3
   2239c:	990e      	ldr	r1, [sp, #56]	; 0x38
   2239e:	bf0c      	ite	eq
   223a0:	f04f 0a0f 	moveq.w	sl, #15
   223a4:	f1aa 0a04 	subne.w	sl, sl, #4
   223a8:	2920      	cmp	r1, #32
   223aa:	bf18      	it	ne
   223ac:	eba1 0903 	subne.w	r9, r1, r3
   223b0:	990f      	ldr	r1, [sp, #60]	; 0x3c
   223b2:	bf0c      	ite	eq
   223b4:	f04f 090f 	moveq.w	r9, #15
   223b8:	f1a9 0905 	subne.w	r9, r9, #5
   223bc:	2920      	cmp	r1, #32
   223be:	bf18      	it	ne
   223c0:	eba1 0803 	subne.w	r8, r1, r3
   223c4:	9910      	ldr	r1, [sp, #64]	; 0x40
   223c6:	bf0c      	ite	eq
   223c8:	f04f 080f 	moveq.w	r8, #15
   223cc:	f1a8 0806 	subne.w	r8, r8, #6
   223d0:	2920      	cmp	r1, #32
   223d2:	bf18      	it	ne
   223d4:	eba1 0e03 	subne.w	lr, r1, r3
   223d8:	9911      	ldr	r1, [sp, #68]	; 0x44
   223da:	bf0c      	ite	eq
   223dc:	f04f 0e0f 	moveq.w	lr, #15
   223e0:	f1ae 0e07 	subne.w	lr, lr, #7
   223e4:	2920      	cmp	r1, #32
   223e6:	bf18      	it	ne
   223e8:	eba1 0c03 	subne.w	ip, r1, r3
   223ec:	9912      	ldr	r1, [sp, #72]	; 0x48
   223ee:	bf0c      	ite	eq
   223f0:	f04f 0c0f 	moveq.w	ip, #15
   223f4:	f1ac 0c08 	subne.w	ip, ip, #8
   223f8:	2920      	cmp	r1, #32
   223fa:	bf18      	it	ne
   223fc:	1acf      	subne	r7, r1, r3
   223fe:	9913      	ldr	r1, [sp, #76]	; 0x4c
   22400:	bf0c      	ite	eq
   22402:	270f      	moveq	r7, #15
   22404:	3f09      	subne	r7, #9
   22406:	2920      	cmp	r1, #32
   22408:	bf18      	it	ne
   2240a:	1acc      	subne	r4, r1, r3
   2240c:	9914      	ldr	r1, [sp, #80]	; 0x50
   2240e:	bf0c      	ite	eq
   22410:	240f      	moveq	r4, #15
   22412:	3c0a      	subne	r4, #10
   22414:	2920      	cmp	r1, #32
   22416:	bf18      	it	ne
   22418:	1ace      	subne	r6, r1, r3
   2241a:	9915      	ldr	r1, [sp, #84]	; 0x54
   2241c:	bf0c      	ite	eq
   2241e:	260f      	moveq	r6, #15
   22420:	3e0b      	subne	r6, #11
   22422:	2920      	cmp	r1, #32
   22424:	bf18      	it	ne
   22426:	1acd      	subne	r5, r1, r3
   22428:	9916      	ldr	r1, [sp, #88]	; 0x58
   2242a:	bf08      	it	eq
   2242c:	251f      	moveq	r5, #31
   2242e:	ea44 1406 	orr.w	r4, r4, r6, lsl #4
   22432:	bf18      	it	ne
   22434:	3d02      	subne	r5, #2
   22436:	2920      	cmp	r1, #32
   22438:	bf16      	itet	ne
   2243a:	1ac9      	subne	r1, r1, r3
   2243c:	211f      	moveq	r1, #31
   2243e:	3902      	subne	r1, #2
   22440:	2a20      	cmp	r2, #32
   22442:	bf14      	ite	ne
   22444:	1ad2      	subne	r2, r2, r3
   22446:	221f      	moveq	r2, #31
   22448:	e9dd 3018 	ldrd	r3, r0, [sp, #96]	; 0x60
   2244c:	bf18      	it	ne
   2244e:	3a02      	subne	r2, #2
   22450:	ea43 1300 	orr.w	r3, r3, r0, lsl #4
   22454:	981a      	ldr	r0, [sp, #104]	; 0x68
   22456:	ea41 1242 	orr.w	r2, r1, r2, lsl #5
   2245a:	ea43 2300 	orr.w	r3, r3, r0, lsl #8
   2245e:	981b      	ldr	r0, [sp, #108]	; 0x6c
   22460:	ea43 3300 	orr.w	r3, r3, r0, lsl #12
   22464:	981c      	ldr	r0, [sp, #112]	; 0x70
   22466:	ea43 4300 	orr.w	r3, r3, r0, lsl #16
   2246a:	981d      	ldr	r0, [sp, #116]	; 0x74
   2246c:	ea43 5300 	orr.w	r3, r3, r0, lsl #20
   22470:	981e      	ldr	r0, [sp, #120]	; 0x78
   22472:	ea43 6300 	orr.w	r3, r3, r0, lsl #24
   22476:	981f      	ldr	r0, [sp, #124]	; 0x7c
   22478:	ea43 7300 	orr.w	r3, r3, r0, lsl #28
   2247c:	9801      	ldr	r0, [sp, #4]
   2247e:	f8c0 3400 	str.w	r3, [r0, #1024]	; 0x400
   22482:	9802      	ldr	r0, [sp, #8]
   22484:	9b20      	ldr	r3, [sp, #128]	; 0x80
   22486:	ea43 1300 	orr.w	r3, r3, r0, lsl #4
   2248a:	9803      	ldr	r0, [sp, #12]
   2248c:	ea43 2300 	orr.w	r3, r3, r0, lsl #8
   22490:	9804      	ldr	r0, [sp, #16]
   22492:	ea43 3300 	orr.w	r3, r3, r0, lsl #12
   22496:	9805      	ldr	r0, [sp, #20]
   22498:	ea43 4300 	orr.w	r3, r3, r0, lsl #16
   2249c:	9806      	ldr	r0, [sp, #24]
   2249e:	ea43 5300 	orr.w	r3, r3, r0, lsl #20
   224a2:	9807      	ldr	r0, [sp, #28]
   224a4:	ea43 6300 	orr.w	r3, r3, r0, lsl #24
   224a8:	9821      	ldr	r0, [sp, #132]	; 0x84
   224aa:	ea43 7300 	orr.w	r3, r3, r0, lsl #28
   224ae:	9801      	ldr	r0, [sp, #4]
   224b0:	f8c0 3404 	str.w	r3, [r0, #1028]	; 0x404
   224b4:	230f      	movs	r3, #15
   224b6:	f8c0 3408 	str.w	r3, [r0, #1032]	; 0x408
   224ba:	e9dd 3008 	ldrd	r3, r0, [sp, #32]
   224be:	ea43 1340 	orr.w	r3, r3, r0, lsl #5
   224c2:	980a      	ldr	r0, [sp, #40]	; 0x28
   224c4:	ea43 2380 	orr.w	r3, r3, r0, lsl #10
   224c8:	9801      	ldr	r0, [sp, #4]
   224ca:	f8c0 340c 	str.w	r3, [r0, #1036]	; 0x40c
   224ce:	9b0b      	ldr	r3, [sp, #44]	; 0x2c
   224d0:	ea43 1b0b 	orr.w	fp, r3, fp, lsl #4
   224d4:	231f      	movs	r3, #31
   224d6:	ea4b 2a0a 	orr.w	sl, fp, sl, lsl #8
   224da:	ea4a 3909 	orr.w	r9, sl, r9, lsl #12
   224de:	ea49 4808 	orr.w	r8, r9, r8, lsl #16
   224e2:	ea48 5e0e 	orr.w	lr, r8, lr, lsl #20
   224e6:	ea4e 6c0c 	orr.w	ip, lr, ip, lsl #24
   224ea:	ea4c 7707 	orr.w	r7, ip, r7, lsl #28
   224ee:	f8c0 7410 	str.w	r7, [r0, #1040]	; 0x410
   224f2:	f8c0 4414 	str.w	r4, [r0, #1044]	; 0x414
   224f6:	f8c0 5418 	str.w	r5, [r0, #1048]	; 0x418
   224fa:	f8c0 341c 	str.w	r3, [r0, #1052]	; 0x41c
   224fe:	9b17      	ldr	r3, [sp, #92]	; 0x5c
   22500:	f8c0 2420 	str.w	r2, [r0, #1056]	; 0x420
   22504:	6f1b      	ldr	r3, [r3, #112]	; 0x70
   22506:	e9d3 2100 	ldrd	r2, r1, [r3]
   2250a:	ea42 4201 	orr.w	r2, r2, r1, lsl #16
   2250e:	f8c0 2460 	str.w	r2, [r0, #1120]	; 0x460
   22512:	e9d3 1203 	ldrd	r1, r2, [r3, #12]
   22516:	0412      	lsls	r2, r2, #16
   22518:	ea42 2201 	orr.w	r2, r2, r1, lsl #8
   2251c:	6899      	ldr	r1, [r3, #8]
   2251e:	430a      	orrs	r2, r1
   22520:	6959      	ldr	r1, [r3, #20]
   22522:	ea42 6201 	orr.w	r2, r2, r1, lsl #24
   22526:	f8c0 2464 	str.w	r2, [r0, #1124]	; 0x464
   2252a:	e9d3 1207 	ldrd	r1, r2, [r3, #28]
   2252e:	0412      	lsls	r2, r2, #16
   22530:	ea42 2201 	orr.w	r2, r2, r1, lsl #8
   22534:	6999      	ldr	r1, [r3, #24]
   22536:	430a      	orrs	r2, r1
   22538:	f8c0 2468 	str.w	r2, [r0, #1128]	; 0x468
   2253c:	e9d3 2109 	ldrd	r2, r1, [r3, #36]	; 0x24
   22540:	ea42 4201 	orr.w	r2, r2, r1, lsl #16
   22544:	f8c0 2480 	str.w	r2, [r0, #1152]	; 0x480
   22548:	e9d3 120c 	ldrd	r1, r2, [r3, #48]	; 0x30
   2254c:	0212      	lsls	r2, r2, #8
   2254e:	ea42 0241 	orr.w	r2, r2, r1, lsl #1
   22552:	6ad9      	ldr	r1, [r3, #44]	; 0x2c
   22554:	430a      	orrs	r2, r1
   22556:	6b99      	ldr	r1, [r3, #56]	; 0x38
   22558:	ea42 4201 	orr.w	r2, r2, r1, lsl #16
   2255c:	f8c0 2484 	str.w	r2, [r0, #1156]	; 0x484
   22560:	6bda      	ldr	r2, [r3, #60]	; 0x3c
   22562:	f8c0 2488 	str.w	r2, [r0, #1160]	; 0x488
   22566:	6c1a      	ldr	r2, [r3, #64]	; 0x40
   22568:	f8c0 248c 	str.w	r2, [r0, #1164]	; 0x48c
   2256c:	6c5a      	ldr	r2, [r3, #68]	; 0x44
   2256e:	f8c0 2490 	str.w	r2, [r0, #1168]	; 0x490
   22572:	6c9a      	ldr	r2, [r3, #72]	; 0x48
   22574:	f8c0 2494 	str.w	r2, [r0, #1172]	; 0x494
   22578:	6cda      	ldr	r2, [r3, #76]	; 0x4c
   2257a:	f8c0 2498 	str.w	r2, [r0, #1176]	; 0x498
   2257e:	e9d3 1215 	ldrd	r1, r2, [r3, #84]	; 0x54
   22582:	6d1b      	ldr	r3, [r3, #80]	; 0x50
   22584:	0212      	lsls	r2, r2, #8
   22586:	ea42 1201 	orr.w	r2, r2, r1, lsl #4
   2258a:	431a      	orrs	r2, r3
   2258c:	f8c0 24a0 	str.w	r2, [r0, #1184]	; 0x4a0
   22590:	b043      	add	sp, #268	; 0x10c
   22592:	e8bd 8ff0 	ldmia.w	sp!, {r4, r5, r6, r7, r8, r9, sl, fp, pc}
   22596:	2302      	movs	r3, #2
   22598:	e587      	b.n	220aa <hal_dramc_perf_tune+0x1e>
   2259a:	910b      	str	r1, [sp, #44]	; 0x2c
   2259c:	e64c      	b.n	22238 <hal_dramc_perf_tune+0x1ac>
   2259e:	910c      	str	r1, [sp, #48]	; 0x30
   225a0:	e64a      	b.n	22238 <hal_dramc_perf_tune+0x1ac>
   225a2:	910d      	str	r1, [sp, #52]	; 0x34
   225a4:	e648      	b.n	22238 <hal_dramc_perf_tune+0x1ac>
   225a6:	910e      	str	r1, [sp, #56]	; 0x38
   225a8:	e646      	b.n	22238 <hal_dramc_perf_tune+0x1ac>
   225aa:	910f      	str	r1, [sp, #60]	; 0x3c
   225ac:	e644      	b.n	22238 <hal_dramc_perf_tune+0x1ac>
   225ae:	9110      	str	r1, [sp, #64]	; 0x40
   225b0:	e642      	b.n	22238 <hal_dramc_perf_tune+0x1ac>
   225b2:	9111      	str	r1, [sp, #68]	; 0x44
   225b4:	e640      	b.n	22238 <hal_dramc_perf_tune+0x1ac>
   225b6:	9112      	str	r1, [sp, #72]	; 0x48
   225b8:	e63e      	b.n	22238 <hal_dramc_perf_tune+0x1ac>
   225ba:	9113      	str	r1, [sp, #76]	; 0x4c
   225bc:	e63c      	b.n	22238 <hal_dramc_perf_tune+0x1ac>
   225be:	9114      	str	r1, [sp, #80]	; 0x50
   225c0:	e63a      	b.n	22238 <hal_dramc_perf_tune+0x1ac>
   225c2:	9108      	str	r1, [sp, #32]
   225c4:	e638      	b.n	22238 <hal_dramc_perf_tune+0x1ac>
   225c6:	9109      	str	r1, [sp, #36]	; 0x24
   225c8:	e636      	b.n	22238 <hal_dramc_perf_tune+0x1ac>
   225ca:	910a      	str	r1, [sp, #40]	; 0x28
   225cc:	e634      	b.n	22238 <hal_dramc_perf_tune+0x1ac>
   225ce:	9116      	str	r1, [sp, #88]	; 0x58
   225d0:	e632      	b.n	22238 <hal_dramc_perf_tune+0x1ac>
   225d2:	460a      	mov	r2, r1
   225d4:	e630      	b.n	22238 <hal_dramc_perf_tune+0x1ac>
   225d6:	9115      	str	r1, [sp, #84]	; 0x54
   225d8:	e62e      	b.n	22238 <hal_dramc_perf_tune+0x1ac>
   225da:	468b      	mov	fp, r1
   225dc:	e62c      	b.n	22238 <hal_dramc_perf_tune+0x1ac>
   225de:	468a      	mov	sl, r1
   225e0:	e62a      	b.n	22238 <hal_dramc_perf_tune+0x1ac>
   225e2:	4689      	mov	r9, r1
   225e4:	e628      	b.n	22238 <hal_dramc_perf_tune+0x1ac>
   225e6:	4688      	mov	r8, r1
   225e8:	e626      	b.n	22238 <hal_dramc_perf_tune+0x1ac>
   225ea:	468e      	mov	lr, r1
   225ec:	e624      	b.n	22238 <hal_dramc_perf_tune+0x1ac>
   225ee:	468c      	mov	ip, r1
   225f0:	e622      	b.n	22238 <hal_dramc_perf_tune+0x1ac>
   225f2:	460f      	mov	r7, r1
   225f4:	e620      	b.n	22238 <hal_dramc_perf_tune+0x1ac>
   225f6:	460e      	mov	r6, r1
   225f8:	e61e      	b.n	22238 <hal_dramc_perf_tune+0x1ac>
   225fa:	460d      	mov	r5, r1
   225fc:	e61c      	b.n	22238 <hal_dramc_perf_tune+0x1ac>
   225fe:	9102      	str	r1, [sp, #8]
   22600:	e61a      	b.n	22238 <hal_dramc_perf_tune+0x1ac>
   22602:	9103      	str	r1, [sp, #12]
   22604:	e618      	b.n	22238 <hal_dramc_perf_tune+0x1ac>
   22606:	9104      	str	r1, [sp, #16]
   22608:	e616      	b.n	22238 <hal_dramc_perf_tune+0x1ac>
   2260a:	9105      	str	r1, [sp, #20]
   2260c:	e614      	b.n	22238 <hal_dramc_perf_tune+0x1ac>
   2260e:	9106      	str	r1, [sp, #24]
   22610:	e612      	b.n	22238 <hal_dramc_perf_tune+0x1ac>
   22612:	9107      	str	r1, [sp, #28]
   22614:	e610      	b.n	22238 <hal_dramc_perf_tune+0x1ac>
	...

00022618 <hal_dramc_init>:
   22618:	e92d 4ff0 	stmdb	sp!, {r4, r5, r6, r7, r8, r9, sl, fp, lr}
   2261c:	2301      	movs	r3, #1
   2261e:	f891 b014 	ldrb.w	fp, [r1, #20]
   22622:	680c      	ldr	r4, [r1, #0]
   22624:	b08d      	sub	sp, #52	; 0x34
   22626:	fa03 f30b 	lsl.w	r3, r3, fp
   2262a:	4682      	mov	sl, r0
   2262c:	78e2      	ldrb	r2, [r4, #3]
   2262e:	4688      	mov	r8, r1
   22630:	930a      	str	r3, [sp, #40]	; 0x28
   22632:	690b      	ldr	r3, [r1, #16]
   22634:	f894 e000 	ldrb.w	lr, [r4]
   22638:	fa03 f30b 	lsl.w	r3, r3, fp
   2263c:	b1aa      	cbz	r2, 2266a <hal_dramc_init+0x52>
   2263e:	2a01      	cmp	r2, #1
   22640:	bf0c      	ite	eq
   22642:	2108      	moveq	r1, #8
   22644:	2110      	movne	r1, #16
   22646:	f8d8 0004 	ldr.w	r0, [r8, #4]
   2264a:	9105      	str	r1, [sp, #20]
   2264c:	6801      	ldr	r1, [r0, #0]
   2264e:	910b      	str	r1, [sp, #44]	; 0x2c
   22650:	6841      	ldr	r1, [r0, #4]
   22652:	9101      	str	r1, [sp, #4]
   22654:	6881      	ldr	r1, [r0, #8]
   22656:	9102      	str	r1, [sp, #8]
   22658:	f06f 4170 	mvn.w	r1, #4026531840	; 0xf0000000
   2265c:	f8ca 1230 	str.w	r1, [sl, #560]	; 0x230
   22660:	79a5      	ldrb	r5, [r4, #6]
   22662:	68a1      	ldr	r1, [r4, #8]
   22664:	b91d      	cbnz	r5, 2266e <hal_dramc_init+0x56>
   22666:	3906      	subs	r1, #6
   22668:	e005      	b.n	22676 <hal_dramc_init+0x5e>
   2266a:	2104      	movs	r1, #4
   2266c:	e7eb      	b.n	22646 <hal_dramc_init+0x2e>
   2266e:	2d01      	cmp	r5, #1
   22670:	f040 809b 	bne.w	227aa <hal_dramc_init+0x192>
   22674:	3907      	subs	r1, #7
   22676:	78a6      	ldrb	r6, [r4, #2]
   22678:	0192      	lsls	r2, r2, #6
   2267a:	ea42 1206 	orr.w	r2, r2, r6, lsl #4
   2267e:	7966      	ldrb	r6, [r4, #5]
   22680:	ea42 2286 	orr.w	r2, r2, r6, lsl #10
   22684:	430a      	orrs	r2, r1
   22686:	f8ca 2224 	str.w	r2, [sl, #548]	; 0x224
   2268a:	f8d8 200c 	ldr.w	r2, [r8, #12]
   2268e:	9200      	str	r2, [sp, #0]
   22690:	f892 2068 	ldrb.w	r2, [r2, #104]	; 0x68
   22694:	9900      	ldr	r1, [sp, #0]
   22696:	f8ca 2228 	str.w	r2, [sl, #552]	; 0x228
   2269a:	9a00      	ldr	r2, [sp, #0]
   2269c:	688e      	ldr	r6, [r1, #8]
   2269e:	6852      	ldr	r2, [r2, #4]
   226a0:	ea4e 3202 	orr.w	r2, lr, r2, lsl #12
   226a4:	ea42 4206 	orr.w	r2, r2, r6, lsl #16
   226a8:	68ce      	ldr	r6, [r1, #12]
   226aa:	ea42 4246 	orr.w	r2, r2, r6, lsl #17
   226ae:	690e      	ldr	r6, [r1, #16]
   226b0:	ea42 4286 	orr.w	r2, r2, r6, lsl #18
   226b4:	694e      	ldr	r6, [r1, #20]
   226b6:	ea42 46c6 	orr.w	r6, r2, r6, lsl #19
   226ba:	698a      	ldr	r2, [r1, #24]
   226bc:	ea46 5642 	orr.w	r6, r6, r2, lsl #21
   226c0:	69ca      	ldr	r2, [r1, #28]
   226c2:	ea46 5682 	orr.w	r6, r6, r2, lsl #22
   226c6:	6a0a      	ldr	r2, [r1, #32]
   226c8:	ea46 7282 	orr.w	r2, r6, r2, lsl #30
   226cc:	9e0a      	ldr	r6, [sp, #40]	; 0x28
   226ce:	ea42 2206 	orr.w	r2, r2, r6, lsl #8
   226d2:	2610      	movs	r6, #16
   226d4:	fa06 f505 	lsl.w	r5, r6, r5
   226d8:	4315      	orrs	r5, r2
   226da:	6a4a      	ldr	r2, [r1, #36]	; 0x24
   226dc:	f8ca 5004 	str.w	r5, [sl, #4]
   226e0:	6b0d      	ldr	r5, [r1, #48]	; 0x30
   226e2:	9203      	str	r2, [sp, #12]
   226e4:	9504      	str	r5, [sp, #16]
   226e6:	6b4d      	ldr	r5, [r1, #52]	; 0x34
   226e8:	6a8a      	ldr	r2, [r1, #40]	; 0x28
   226ea:	9507      	str	r5, [sp, #28]
   226ec:	6b8d      	ldr	r5, [r1, #56]	; 0x38
   226ee:	9206      	str	r2, [sp, #24]
   226f0:	9508      	str	r5, [sp, #32]
   226f2:	6aca      	ldr	r2, [r1, #44]	; 0x2c
   226f4:	e9d1 7c0f 	ldrd	r7, ip, [r1, #60]	; 0x3c
   226f8:	6905      	ldr	r5, [r0, #16]
   226fa:	0092      	lsls	r2, r2, #2
   226fc:	9e0a      	ldr	r6, [sp, #40]	; 0x28
   226fe:	6941      	ldr	r1, [r0, #20]
   22700:	f106 39ff 	add.w	r9, r6, #4294967295	; 0xffffffff
   22704:	fa25 f60b 	lsr.w	r6, r5, fp
   22708:	ea15 0f09 	tst.w	r5, r9
   2270c:	6945      	ldr	r5, [r0, #20]
   2270e:	bf18      	it	ne
   22710:	3601      	addne	r6, #1
   22712:	ea11 0f09 	tst.w	r1, r9
   22716:	9906      	ldr	r1, [sp, #24]
   22718:	fa25 f50b 	lsr.w	r5, r5, fp
   2271c:	ea42 0241 	orr.w	r2, r2, r1, lsl #1
   22720:	9903      	ldr	r1, [sp, #12]
   22722:	bf18      	it	ne
   22724:	3501      	addne	r5, #1
   22726:	430a      	orrs	r2, r1
   22728:	9904      	ldr	r1, [sp, #16]
   2272a:	ea42 02c1 	orr.w	r2, r2, r1, lsl #3
   2272e:	9907      	ldr	r1, [sp, #28]
   22730:	ea42 1201 	orr.w	r2, r2, r1, lsl #4
   22734:	9908      	ldr	r1, [sp, #32]
   22736:	ea42 1241 	orr.w	r2, r2, r1, lsl #5
   2273a:	ea42 1287 	orr.w	r2, r2, r7, lsl #6
   2273e:	ea42 2c0c 	orr.w	ip, r2, ip, lsl #8
   22742:	9a00      	ldr	r2, [sp, #0]
   22744:	6c52      	ldr	r2, [r2, #68]	; 0x44
   22746:	ea4c 6cc2 	orr.w	ip, ip, r2, lsl #27
   2274a:	9a00      	ldr	r2, [sp, #0]
   2274c:	6c92      	ldr	r2, [r2, #72]	; 0x48
   2274e:	ea4c 7c02 	orr.w	ip, ip, r2, lsl #28
   22752:	9a00      	ldr	r2, [sp, #0]
   22754:	6cd2      	ldr	r2, [r2, #76]	; 0x4c
   22756:	ea4c 7242 	orr.w	r2, ip, r2, lsl #29
   2275a:	ea42 3206 	orr.w	r2, r2, r6, lsl #12
   2275e:	ea42 5205 	orr.w	r2, r2, r5, lsl #20
   22762:	f8ca 2008 	str.w	r2, [sl, #8]
   22766:	6a42      	ldr	r2, [r0, #36]	; 0x24
   22768:	4611      	mov	r1, r2
   2276a:	f1ae 0202 	sub.w	r2, lr, #2
   2276e:	b2d2      	uxtb	r2, r2
   22770:	9206      	str	r2, [sp, #24]
   22772:	9a05      	ldr	r2, [sp, #20]
   22774:	2a08      	cmp	r2, #8
   22776:	d11d      	bne.n	227b4 <hal_dramc_init+0x19c>
   22778:	f1be 0f02 	cmp.w	lr, #2
   2277c:	bf0c      	ite	eq
   2277e:	2203      	moveq	r2, #3
   22780:	2200      	movne	r2, #0
   22782:	f1be 0f02 	cmp.w	lr, #2
   22786:	7924      	ldrb	r4, [r4, #4]
   22788:	9203      	str	r2, [sp, #12]
   2278a:	f000 80e9 	beq.w	22960 <hal_dramc_init+0x348>
   2278e:	f1be 0f03 	cmp.w	lr, #3
   22792:	f040 80e8 	bne.w	22966 <hal_dramc_init+0x34e>
   22796:	9a01      	ldr	r2, [sp, #4]
   22798:	2a04      	cmp	r2, #4
   2279a:	f240 80e7 	bls.w	2296c <hal_dramc_init+0x354>
   2279e:	2a0b      	cmp	r2, #11
   227a0:	d813      	bhi.n	227ca <hal_dramc_init+0x1b2>
   227a2:	f1a2 0c04 	sub.w	ip, r2, #4
   227a6:	2700      	movs	r7, #0
   227a8:	e013      	b.n	227d2 <hal_dramc_init+0x1ba>
   227aa:	2d03      	cmp	r5, #3
   227ac:	f47f af5b 	bne.w	22666 <hal_dramc_init+0x4e>
   227b0:	3908      	subs	r1, #8
   227b2:	e760      	b.n	22676 <hal_dramc_init+0x5e>
   227b4:	9a05      	ldr	r2, [sp, #20]
   227b6:	2a04      	cmp	r2, #4
   227b8:	d105      	bne.n	227c6 <hal_dramc_init+0x1ae>
   227ba:	9a06      	ldr	r2, [sp, #24]
   227bc:	2a02      	cmp	r2, #2
   227be:	bf34      	ite	cc
   227c0:	2202      	movcc	r2, #2
   227c2:	2200      	movcs	r2, #0
   227c4:	e7dd      	b.n	22782 <hal_dramc_init+0x16a>
   227c6:	2200      	movs	r2, #0
   227c8:	e7db      	b.n	22782 <hal_dramc_init+0x16a>
   227ca:	9a01      	ldr	r2, [sp, #4]
   227cc:	2701      	movs	r7, #1
   227ce:	f1a2 0c0c 	sub.w	ip, r2, #12
   227d2:	f8d8 2008 	ldr.w	r2, [r8, #8]
   227d6:	f1be 0f02 	cmp.w	lr, #2
   227da:	6dd5      	ldr	r5, [r2, #92]	; 0x5c
   227dc:	f040 80ca 	bne.w	22974 <hal_dramc_init+0x35c>
   227e0:	1eae      	subs	r6, r5, #2
   227e2:	2e06      	cmp	r6, #6
   227e4:	f200 80d8 	bhi.w	22998 <hal_dramc_init+0x380>
   227e8:	1e6e      	subs	r6, r5, #1
   227ea:	f04f 0800 	mov.w	r8, #0
   227ee:	ea41 04c4 	orr.w	r4, r1, r4, lsl #3
   227f2:	9903      	ldr	r1, [sp, #12]
   227f4:	f1be 0f03 	cmp.w	lr, #3
   227f8:	ea44 0401 	orr.w	r4, r4, r1
   227fc:	9902      	ldr	r1, [sp, #8]
   227fe:	ea44 0487 	orr.w	r4, r4, r7, lsl #2
   22802:	6ac7      	ldr	r7, [r0, #44]	; 0x2c
   22804:	ea44 140c 	orr.w	r4, r4, ip, lsl #4
   22808:	ea44 2446 	orr.w	r4, r4, r6, lsl #9
   2280c:	ea44 3408 	orr.w	r4, r4, r8, lsl #12
   22810:	f8ca 4034 	str.w	r4, [sl, #52]	; 0x34
   22814:	6a84      	ldr	r4, [r0, #40]	; 0x28
   22816:	ea44 04c1 	orr.w	r4, r4, r1, lsl #3
   2281a:	f8ca 4038 	str.w	r4, [sl, #56]	; 0x38
   2281e:	f040 80c1 	bne.w	229a4 <hal_dramc_init+0x38c>
   22822:	990b      	ldr	r1, [sp, #44]	; 0x2c
   22824:	1f4e      	subs	r6, r1, #5
   22826:	9904      	ldr	r1, [sp, #16]
   22828:	fab1 f481 	clz	r4, r1
   2282c:	0964      	lsrs	r4, r4, #5
   2282e:	0264      	lsls	r4, r4, #9
   22830:	990b      	ldr	r1, [sp, #44]	; 0x2c
   22832:	ea44 04c6 	orr.w	r4, r4, r6, lsl #3
   22836:	433c      	orrs	r4, r7
   22838:	f8ca 403c 	str.w	r4, [sl, #60]	; 0x3c
   2283c:	68c4      	ldr	r4, [r0, #12]
   2283e:	1866      	adds	r6, r4, r1
   22840:	9901      	ldr	r1, [sp, #4]
   22842:	ea16 0f09 	tst.w	r6, r9
   22846:	440c      	add	r4, r1
   22848:	fa26 f00b 	lsr.w	r0, r6, fp
   2284c:	9902      	ldr	r1, [sp, #8]
   2284e:	fa24 f70b 	lsr.w	r7, r4, fp
   22852:	bf18      	it	ne
   22854:	3001      	addne	r0, #1
   22856:	ea14 0f09 	tst.w	r4, r9
   2285a:	fa21 f60b 	lsr.w	r6, r1, fp
   2285e:	bf18      	it	ne
   22860:	3701      	addne	r7, #1
   22862:	ea11 0f09 	tst.w	r1, r9
   22866:	9906      	ldr	r1, [sp, #24]
   22868:	bf18      	it	ne
   2286a:	3601      	addne	r6, #1
   2286c:	2901      	cmp	r1, #1
   2286e:	f200 80a1 	bhi.w	229b4 <hal_dramc_init+0x39c>
   22872:	ea15 0f09 	tst.w	r5, r9
   22876:	fa25 f40b 	lsr.w	r4, r5, fp
   2287a:	d000      	beq.n	2287e <hal_dramc_init+0x266>
   2287c:	3401      	adds	r4, #1
   2287e:	f8d2 c024 	ldr.w	ip, [r2, #36]	; 0x24
   22882:	fbbc f5f3 	udiv	r5, ip, r3
   22886:	fb03 cc15 	mls	ip, r3, r5, ip
   2288a:	f1bc 0f00 	cmp.w	ip, #0
   2288e:	d000      	beq.n	22892 <hal_dramc_init+0x27a>
   22890:	3501      	adds	r5, #1
   22892:	9905      	ldr	r1, [sp, #20]
   22894:	f1be 0f02 	cmp.w	lr, #2
   22898:	ea40 1047 	orr.w	r0, r0, r7, lsl #5
   2289c:	ea4f 0151 	mov.w	r1, r1, lsr #1
   228a0:	ea40 2086 	orr.w	r0, r0, r6, lsl #10
   228a4:	bf08      	it	eq
   228a6:	f1a1 0c02 	subeq.w	ip, r1, #2
   228aa:	9109      	str	r1, [sp, #36]	; 0x24
   228ac:	bf08      	it	eq
   228ae:	9902      	ldreq	r1, [sp, #8]
   228b0:	ea40 5004 	orr.w	r0, r0, r4, lsl #20
   228b4:	bf0b      	itete	eq
   228b6:	fa2c fc0b 	lsreq.w	ip, ip, fp
   228ba:	9902      	ldrne	r1, [sp, #8]
   228bc:	448c      	addeq	ip, r1
   228be:	186d      	addne	r5, r5, r1
   228c0:	bf08      	it	eq
   228c2:	4465      	addeq	r5, ip
   228c4:	ea40 6045 	orr.w	r0, r0, r5, lsl #25
   228c8:	f8ca 0030 	str.w	r0, [sl, #48]	; 0x30
   228cc:	6810      	ldr	r0, [r2, #0]
   228ce:	fbb0 f1f3 	udiv	r1, r0, r3
   228d2:	fb03 0011 	mls	r0, r3, r1, r0
   228d6:	9102      	str	r1, [sp, #8]
   228d8:	b110      	cbz	r0, 228e0 <hal_dramc_init+0x2c8>
   228da:	4608      	mov	r0, r1
   228dc:	3001      	adds	r0, #1
   228de:	9002      	str	r0, [sp, #8]
   228e0:	6850      	ldr	r0, [r2, #4]
   228e2:	fbb0 f6f3 	udiv	r6, r0, r3
   228e6:	fb03 0016 	mls	r0, r3, r6, r0
   228ea:	2800      	cmp	r0, #0
   228ec:	d064      	beq.n	229b8 <hal_dramc_init+0x3a0>
   228ee:	3ec7      	subs	r6, #199	; 0xc7
   228f0:	9900      	ldr	r1, [sp, #0]
   228f2:	e9d1 4015 	ldrd	r4, r0, [r1, #84]	; 0x54
   228f6:	0740      	lsls	r0, r0, #29
   228f8:	ea40 7004 	orr.w	r0, r0, r4, lsl #28
   228fc:	ea40 2606 	orr.w	r6, r0, r6, lsl #8
   22900:	f89d 0008 	ldrb.w	r0, [sp, #8]
   22904:	4330      	orrs	r0, r6
   22906:	f040 7080 	orr.w	r0, r0, #16777216	; 0x1000000
   2290a:	f8ca 0010 	str.w	r0, [sl, #16]
   2290e:	6910      	ldr	r0, [r2, #16]
   22910:	fbb0 f1f3 	udiv	r1, r0, r3
   22914:	fb03 0011 	mls	r0, r3, r1, r0
   22918:	9103      	str	r1, [sp, #12]
   2291a:	b110      	cbz	r0, 22922 <hal_dramc_init+0x30a>
   2291c:	4608      	mov	r0, r1
   2291e:	3001      	adds	r0, #1
   22920:	9003      	str	r0, [sp, #12]
   22922:	6990      	ldr	r0, [r2, #24]
   22924:	fbb0 f1f3 	udiv	r1, r0, r3
   22928:	fb03 0011 	mls	r0, r3, r1, r0
   2292c:	9106      	str	r1, [sp, #24]
   2292e:	b110      	cbz	r0, 22936 <hal_dramc_init+0x31e>
   22930:	4608      	mov	r0, r1
   22932:	3001      	adds	r0, #1
   22934:	9006      	str	r0, [sp, #24]
   22936:	68d0      	ldr	r0, [r2, #12]
   22938:	fbb0 f1f3 	udiv	r1, r0, r3
   2293c:	fb03 0011 	mls	r0, r3, r1, r0
   22940:	9104      	str	r1, [sp, #16]
   22942:	b110      	cbz	r0, 2294a <hal_dramc_init+0x332>
   22944:	4608      	mov	r0, r1
   22946:	3001      	adds	r0, #1
   22948:	9004      	str	r0, [sp, #16]
   2294a:	e9d2 6411 	ldrd	r6, r4, [r2, #68]	; 0x44
   2294e:	42a6      	cmp	r6, r4
   22950:	d934      	bls.n	229bc <hal_dramc_init+0x3a4>
   22952:	fbb6 f0f3 	udiv	r0, r6, r3
   22956:	fb03 6610 	mls	r6, r3, r0, r6
   2295a:	b3ae      	cbz	r6, 229c8 <hal_dramc_init+0x3b0>
   2295c:	3001      	adds	r0, #1
   2295e:	e033      	b.n	229c8 <hal_dramc_init+0x3b0>
   22960:	f8dd c004 	ldr.w	ip, [sp, #4]
   22964:	e71f      	b.n	227a6 <hal_dramc_init+0x18e>
   22966:	2700      	movs	r7, #0
   22968:	46bc      	mov	ip, r7
   2296a:	e732      	b.n	227d2 <hal_dramc_init+0x1ba>
   2296c:	2700      	movs	r7, #0
   2296e:	f04f 0c01 	mov.w	ip, #1
   22972:	e72e      	b.n	227d2 <hal_dramc_init+0x1ba>
   22974:	f1be 0f03 	cmp.w	lr, #3
   22978:	d112      	bne.n	229a0 <hal_dramc_init+0x388>
   2297a:	2d04      	cmp	r5, #4
   2297c:	d90e      	bls.n	2299c <hal_dramc_init+0x384>
   2297e:	1f6e      	subs	r6, r5, #5
   22980:	2e03      	cmp	r6, #3
   22982:	d803      	bhi.n	2298c <hal_dramc_init+0x374>
   22984:	1f2e      	subs	r6, r5, #4
   22986:	f04f 0801 	mov.w	r8, #1
   2298a:	e730      	b.n	227ee <hal_dramc_init+0x1d6>
   2298c:	f1a5 0609 	sub.w	r6, r5, #9
   22990:	2e05      	cmp	r6, #5
   22992:	d805      	bhi.n	229a0 <hal_dramc_init+0x388>
   22994:	086e      	lsrs	r6, r5, #1
   22996:	e7f6      	b.n	22986 <hal_dramc_init+0x36e>
   22998:	2600      	movs	r6, #0
   2299a:	e726      	b.n	227ea <hal_dramc_init+0x1d2>
   2299c:	2601      	movs	r6, #1
   2299e:	e7f2      	b.n	22986 <hal_dramc_init+0x36e>
   229a0:	2600      	movs	r6, #0
   229a2:	e7f0      	b.n	22986 <hal_dramc_init+0x36e>
   229a4:	f1be 0f02 	cmp.w	lr, #2
   229a8:	f04f 0600 	mov.w	r6, #0
   229ac:	f47f af3b 	bne.w	22826 <hal_dramc_init+0x20e>
   229b0:	4634      	mov	r4, r6
   229b2:	e73c      	b.n	2282e <hal_dramc_init+0x216>
   229b4:	2400      	movs	r4, #0
   229b6:	e762      	b.n	2287e <hal_dramc_init+0x266>
   229b8:	3ec8      	subs	r6, #200	; 0xc8
   229ba:	e799      	b.n	228f0 <hal_dramc_init+0x2d8>
   229bc:	fbb4 f0f3 	udiv	r0, r4, r3
   229c0:	fb03 4410 	mls	r4, r3, r0, r4
   229c4:	2c00      	cmp	r4, #0
   229c6:	d1c9      	bne.n	2295c <hal_dramc_init+0x344>
   229c8:	9900      	ldr	r1, [sp, #0]
   229ca:	6d17      	ldr	r7, [r2, #80]	; 0x50
   229cc:	6dcc      	ldr	r4, [r1, #92]	; 0x5c
   229ce:	9903      	ldr	r1, [sp, #12]
   229d0:	fa27 f60b 	lsr.w	r6, r7, fp
   229d4:	05e4      	lsls	r4, r4, #23
   229d6:	ea17 0f09 	tst.w	r7, r9
   229da:	ea44 3545 	orr.w	r5, r4, r5, lsl #13
   229de:	bf18      	it	ne
   229e0:	3601      	addne	r6, #1
   229e2:	010c      	lsls	r4, r1, #4
   229e4:	9906      	ldr	r1, [sp, #24]
   229e6:	f404 74f8 	and.w	r4, r4, #496	; 0x1f0
   229ea:	432c      	orrs	r4, r5
   229ec:	024d      	lsls	r5, r1, #9
   229ee:	9904      	ldr	r1, [sp, #16]
   229f0:	f405 55f0 	and.w	r5, r5, #7680	; 0x1e00
   229f4:	4325      	orrs	r5, r4
   229f6:	f001 040f 	and.w	r4, r1, #15
   229fa:	4325      	orrs	r5, r4
   229fc:	ea45 4540 	orr.w	r5, r5, r0, lsl #17
   22a00:	6950      	ldr	r0, [r2, #20]
   22a02:	fbb0 fcf3 	udiv	ip, r0, r3
   22a06:	ea45 6506 	orr.w	r5, r5, r6, lsl #24
   22a0a:	fb03 001c 	mls	r0, r3, ip, r0
   22a0e:	f8ca 5014 	str.w	r5, [sl, #20]
   22a12:	b108      	cbz	r0, 22a18 <hal_dramc_init+0x400>
   22a14:	f10c 0c01 	add.w	ip, ip, #1
   22a18:	6b14      	ldr	r4, [r2, #48]	; 0x30
   22a1a:	fbb4 f0f3 	udiv	r0, r4, r3
   22a1e:	fb03 4410 	mls	r4, r3, r0, r4
   22a22:	b104      	cbz	r4, 22a26 <hal_dramc_init+0x40e>
   22a24:	3001      	adds	r0, #1
   22a26:	e9dd 1403 	ldrd	r1, r4, [sp, #12]
   22a2a:	190c      	adds	r4, r1, r4
   22a2c:	4284      	cmp	r4, r0
   22a2e:	bf38      	it	cc
   22a30:	4604      	movcc	r4, r0
   22a32:	6890      	ldr	r0, [r2, #8]
   22a34:	fbb0 f5f3 	udiv	r5, r0, r3
   22a38:	fb03 0015 	mls	r0, r3, r5, r0
   22a3c:	b900      	cbnz	r0, 22a40 <hal_dramc_init+0x428>
   22a3e:	3d01      	subs	r5, #1
   22a40:	6ad1      	ldr	r1, [r2, #44]	; 0x2c
   22a42:	69d0      	ldr	r0, [r2, #28]
   22a44:	ea11 0f09 	tst.w	r1, r9
   22a48:	fa21 f80b 	lsr.w	r8, r1, fp
   22a4c:	fa20 f70b 	lsr.w	r7, r0, fp
   22a50:	9107      	str	r1, [sp, #28]
   22a52:	bf18      	it	ne
   22a54:	f108 0801 	addne.w	r8, r8, #1
   22a58:	9909      	ldr	r1, [sp, #36]	; 0x24
   22a5a:	ea10 0f09 	tst.w	r0, r9
   22a5e:	f101 0102 	add.w	r1, r1, #2
   22a62:	bf18      	it	ne
   22a64:	3701      	addne	r7, #1
   22a66:	f1be 0f02 	cmp.w	lr, #2
   22a6a:	9108      	str	r1, [sp, #32]
   22a6c:	d106      	bne.n	22a7c <hal_dramc_init+0x464>
   22a6e:	ea19 0f01 	tst.w	r9, r1
   22a72:	fa21 f00b 	lsr.w	r0, r1, fp
   22a76:	d011      	beq.n	22a9c <hal_dramc_init+0x484>
   22a78:	3001      	adds	r0, #1
   22a7a:	e00f      	b.n	22a9c <hal_dramc_init+0x484>
   22a7c:	f1be 0f03 	cmp.w	lr, #3
   22a80:	f040 80e2 	bne.w	22c48 <hal_dramc_init+0x630>
   22a84:	9e01      	ldr	r6, [sp, #4]
   22a86:	990b      	ldr	r1, [sp, #44]	; 0x2c
   22a88:	3602      	adds	r6, #2
   22a8a:	1a76      	subs	r6, r6, r1
   22a8c:	9909      	ldr	r1, [sp, #36]	; 0x24
   22a8e:	440e      	add	r6, r1
   22a90:	ea16 0f09 	tst.w	r6, r9
   22a94:	fa26 f00b 	lsr.w	r0, r6, fp
   22a98:	d0ee      	beq.n	22a78 <hal_dramc_init+0x460>
   22a9a:	3002      	adds	r0, #2
   22a9c:	6c11      	ldr	r1, [r2, #64]	; 0x40
   22a9e:	fbb1 f6f3 	udiv	r6, r1, r3
   22aa2:	fb03 1116 	mls	r1, r3, r6, r1
   22aa6:	b101      	cbz	r1, 22aaa <hal_dramc_init+0x492>
   22aa8:	3601      	adds	r6, #1
   22aaa:	ea4c 1404 	orr.w	r4, ip, r4, lsl #4
   22aae:	f1be 0f02 	cmp.w	lr, #2
   22ab2:	ea4f 2c85 	mov.w	ip, r5, lsl #10
   22ab6:	f40c 5c70 	and.w	ip, ip, #15360	; 0x3c00
   22aba:	ea44 040c 	orr.w	r4, r4, ip
   22abe:	ea4f 4c47 	mov.w	ip, r7, lsl #17
   22ac2:	ea44 3888 	orr.w	r8, r4, r8, lsl #14
   22ac6:	f40c 2c60 	and.w	ip, ip, #917504	; 0xe0000
   22aca:	ea4f 5400 	mov.w	r4, r0, lsl #20
   22ace:	ea48 080c 	orr.w	r8, r8, ip
   22ad2:	f404 0470 	and.w	r4, r4, #15728640	; 0xf00000
   22ad6:	ea48 0804 	orr.w	r8, r8, r4
   22ada:	ea4f 6406 	mov.w	r4, r6, lsl #24
   22ade:	f004 54f8 	and.w	r4, r4, #520093696	; 0x1f000000
   22ae2:	ea48 0404 	orr.w	r4, r8, r4
   22ae6:	f8ca 4018 	str.w	r4, [sl, #24]
   22aea:	f000 80af 	beq.w	22c4c <hal_dramc_init+0x634>
   22aee:	9900      	ldr	r1, [sp, #0]
   22af0:	f1be 0f03 	cmp.w	lr, #3
   22af4:	6e09      	ldr	r1, [r1, #96]	; 0x60
   22af6:	9100      	str	r1, [sp, #0]
   22af8:	f040 80bf 	bne.w	22c7a <hal_dramc_init+0x662>
   22afc:	4963      	ldr	r1, [pc, #396]	; (22c8c <hal_dramc_init+0x674>)
   22afe:	4c64      	ldr	r4, [pc, #400]	; (22c90 <hal_dramc_init+0x678>)
   22b00:	f8d2 c020 	ldr.w	ip, [r2, #32]
   22b04:	fbb1 f8f3 	udiv	r8, r1, r3
   22b08:	f242 7110 	movw	r1, #10000	; 0x2710
   22b0c:	ea4f 2898 	mov.w	r8, r8, lsr #10
   22b10:	fbb4 f4f3 	udiv	r4, r4, r3
   22b14:	fbb1 f3f3 	udiv	r3, r1, r3
   22b18:	9902      	ldr	r1, [sp, #8]
   22b1a:	0aa4      	lsrs	r4, r4, #10
   22b1c:	f108 0801 	add.w	r8, r8, #1
   22b20:	440b      	add	r3, r1
   22b22:	3401      	adds	r4, #1
   22b24:	09db      	lsrs	r3, r3, #7
   22b26:	3301      	adds	r3, #1
   22b28:	021b      	lsls	r3, r3, #8
   22b2a:	9900      	ldr	r1, [sp, #0]
   22b2c:	f8d2 e038 	ldr.w	lr, [r2, #56]	; 0x38
   22b30:	0976      	lsrs	r6, r6, #5
   22b32:	ea43 130c 	orr.w	r3, r3, ip, lsl #4
   22b36:	092d      	lsrs	r5, r5, #4
   22b38:	430b      	orrs	r3, r1
   22b3a:	9906      	ldr	r1, [sp, #24]
   22b3c:	08ff      	lsrs	r7, r7, #3
   22b3e:	ea43 3304 	orr.w	r3, r3, r4, lsl #12
   22b42:	6b54      	ldr	r4, [r2, #52]	; 0x34
   22b44:	0900      	lsrs	r0, r0, #4
   22b46:	ea43 5388 	orr.w	r3, r3, r8, lsl #22
   22b4a:	ea14 0f09 	tst.w	r4, r9
   22b4e:	fa24 fc0b 	lsr.w	ip, r4, fp
   22b52:	fa2e f40b 	lsr.w	r4, lr, fp
   22b56:	f8ca 301c 	str.w	r3, [sl, #28]
   22b5a:	ea4f 1111 	mov.w	r1, r1, lsr #4
   22b5e:	9b03      	ldr	r3, [sp, #12]
   22b60:	bf18      	it	ne
   22b62:	f10c 0c01 	addne.w	ip, ip, #1
   22b66:	ea1e 0f09 	tst.w	lr, r9
   22b6a:	f8d2 e03c 	ldr.w	lr, [r2, #60]	; 0x3c
   22b6e:	ea4f 1853 	mov.w	r8, r3, lsr #5
   22b72:	9b02      	ldr	r3, [sp, #8]
   22b74:	fa2e f20b 	lsr.w	r2, lr, fp
   22b78:	bf18      	it	ne
   22b7a:	3401      	addne	r4, #1
   22b7c:	0a1b      	lsrs	r3, r3, #8
   22b7e:	ea1e 0f09 	tst.w	lr, r9
   22b82:	9300      	str	r3, [sp, #0]
   22b84:	bf18      	it	ne
   22b86:	3201      	addne	r2, #1
   22b88:	9b05      	ldr	r3, [sp, #20]
   22b8a:	fa23 fe0b 	lsr.w	lr, r3, fp
   22b8e:	9b07      	ldr	r3, [sp, #28]
   22b90:	4573      	cmp	r3, lr
   22b92:	d207      	bcs.n	22ba4 <hal_dramc_init+0x58c>
   22b94:	ebae 0e03 	sub.w	lr, lr, r3
   22b98:	fa2e f20b 	lsr.w	r2, lr, fp
   22b9c:	ea1e 0f09 	tst.w	lr, r9
   22ba0:	bf18      	it	ne
   22ba2:	3201      	addne	r2, #1
   22ba4:	9b00      	ldr	r3, [sp, #0]
   22ba6:	ea4f 0988 	mov.w	r9, r8, lsl #2
   22baa:	02c9      	lsls	r1, r1, #11
   22bac:	029b      	lsls	r3, r3, #10
   22bae:	f009 0904 	and.w	r9, r9, #4
   22bb2:	01ed      	lsls	r5, r5, #7
   22bb4:	f403 6380 	and.w	r3, r3, #1024	; 0x400
   22bb8:	023f      	lsls	r7, r7, #8
   22bba:	b2ed      	uxtb	r5, r5
   22bbc:	ea49 0903 	orr.w	r9, r9, r3
   22bc0:	f401 6300 	and.w	r3, r1, #2048	; 0x800
   22bc4:	f407 7780 	and.w	r7, r7, #256	; 0x100
   22bc8:	0240      	lsls	r0, r0, #9
   22bca:	ea49 0903 	orr.w	r9, r9, r3
   22bce:	00f6      	lsls	r6, r6, #3
   22bd0:	f400 7000 	and.w	r0, r0, #512	; 0x200
   22bd4:	9b04      	ldr	r3, [sp, #16]
   22bd6:	ea49 0505 	orr.w	r5, r9, r5
   22bda:	f006 0608 	and.w	r6, r6, #8
   22bde:	f3c3 1300 	ubfx	r3, r3, #4, #1
   22be2:	432f      	orrs	r7, r5
   22be4:	4338      	orrs	r0, r7
   22be6:	4306      	orrs	r6, r0
   22be8:	ea46 3c8c 	orr.w	ip, r6, ip, lsl #14
   22bec:	ea4c 4444 	orr.w	r4, ip, r4, lsl #17
   22bf0:	ea44 5202 	orr.w	r2, r4, r2, lsl #20
   22bf4:	f8ca 2020 	str.w	r2, [sl, #32]
   22bf8:	f8ca 3090 	str.w	r3, [sl, #144]	; 0x90
   22bfc:	9b0a      	ldr	r3, [sp, #40]	; 0x28
   22bfe:	2b01      	cmp	r3, #1
   22c00:	bf1e      	ittt	ne
   22c02:	9b09      	ldrne	r3, [sp, #36]	; 0x24
   22c04:	3303      	addne	r3, #3
   22c06:	9308      	strne	r3, [sp, #32]
   22c08:	9b08      	ldr	r3, [sp, #32]
   22c0a:	f8ca 3094 	str.w	r3, [sl, #148]	; 0x94
   22c0e:	f64f 73ff 	movw	r3, #65535	; 0xffff
   22c12:	f8ca 30cc 	str.w	r3, [sl, #204]	; 0xcc
   22c16:	f44f 63e0 	mov.w	r3, #1792	; 0x700
   22c1a:	f8ca 300c 	str.w	r3, [sl, #12]
   22c1e:	2301      	movs	r3, #1
   22c20:	f8ca 3000 	str.w	r3, [sl]
   22c24:	f8da 3000 	ldr.w	r3, [sl]
   22c28:	07db      	lsls	r3, r3, #31
   22c2a:	d5fb      	bpl.n	22c24 <hal_dramc_init+0x60c>
   22c2c:	f44f 63c0 	mov.w	r3, #1536	; 0x600
   22c30:	f8ca 300c 	str.w	r3, [sl, #12]
   22c34:	f8da 300c 	ldr.w	r3, [sl, #12]
   22c38:	f3c3 030a 	ubfx	r3, r3, #0, #11
   22c3c:	f5b3 6fc0 	cmp.w	r3, #1536	; 0x600
   22c40:	d1f8      	bne.n	22c34 <hal_dramc_init+0x61c>
   22c42:	b00d      	add	sp, #52	; 0x34
   22c44:	e8bd 8ff0 	ldmia.w	sp!, {r4, r5, r6, r7, r8, r9, sl, fp, pc}
   22c48:	2000      	movs	r0, #0
   22c4a:	e727      	b.n	22a9c <hal_dramc_init+0x484>
   22c4c:	6a11      	ldr	r1, [r2, #32]
   22c4e:	fbb1 fcf3 	udiv	ip, r1, r3
   22c52:	fb03 111c 	mls	r1, r3, ip, r1
   22c56:	b109      	cbz	r1, 22c5c <hal_dramc_init+0x644>
   22c58:	f10c 0c01 	add.w	ip, ip, #1
   22c5c:	2102      	movs	r1, #2
   22c5e:	9100      	str	r1, [sp, #0]
   22c60:	4c0a      	ldr	r4, [pc, #40]	; (22c8c <hal_dramc_init+0x674>)
   22c62:	490c      	ldr	r1, [pc, #48]	; (22c94 <hal_dramc_init+0x67c>)
   22c64:	fbb4 f4f3 	udiv	r4, r4, r3
   22c68:	fbb1 f3f3 	udiv	r3, r1, r3
   22c6c:	0aa4      	lsrs	r4, r4, #10
   22c6e:	09db      	lsrs	r3, r3, #7
   22c70:	3401      	adds	r4, #1
   22c72:	3301      	adds	r3, #1
   22c74:	f04f 0800 	mov.w	r8, #0
   22c78:	e756      	b.n	22b28 <hal_dramc_init+0x510>
   22c7a:	f1be 0f02 	cmp.w	lr, #2
   22c7e:	f04f 0c00 	mov.w	ip, #0
   22c82:	d0ed      	beq.n	22c60 <hal_dramc_init+0x648>
   22c84:	4663      	mov	r3, ip
   22c86:	4664      	mov	r4, ip
   22c88:	e7f4      	b.n	22c74 <hal_dramc_init+0x65c>
   22c8a:	bf00      	nop
   22c8c:	0bebc200 	.word	0x0bebc200
   22c90:	1dcd6500 	.word	0x1dcd6500
   22c94:	00061a80 	.word	0x00061a80

00022c98 <cpu_read_modify_write>:
   22c98:	6803      	ldr	r3, [r0, #0]
   22c9a:	4059      	eors	r1, r3
   22c9c:	4011      	ands	r1, r2
   22c9e:	4059      	eors	r1, r3
   22ca0:	6001      	str	r1, [r0, #0]
   22ca2:	4770      	bx	lr

00022ca4 <hal_ddr2_phy_init>:
   22ca4:	b538      	push	{r3, r4, r5, lr}
   22ca6:	4bd9      	ldr	r3, [pc, #868]	; (2300c <hal_ddr2_phy_init+0x368>)
   22ca8:	4dd9      	ldr	r5, [pc, #868]	; (23010 <hal_ddr2_phy_init+0x36c>)
   22caa:	781b      	ldrb	r3, [r3, #0]
   22cac:	fbb5 f5f0 	udiv	r5, r5, r0
   22cb0:	b123      	cbz	r3, 22cbc <hal_ddr2_phy_init+0x18>
   22cb2:	4bd8      	ldr	r3, [pc, #864]	; (23014 <hal_ddr2_phy_init+0x370>)
   22cb4:	4629      	mov	r1, r5
   22cb6:	48d8      	ldr	r0, [pc, #864]	; (23018 <hal_ddr2_phy_init+0x374>)
   22cb8:	69db      	ldr	r3, [r3, #28]
   22cba:	4798      	blx	r3
   22cbc:	4cd7      	ldr	r4, [pc, #860]	; (2301c <hal_ddr2_phy_init+0x378>)
   22cbe:	2001      	movs	r0, #1
   22cc0:	f003 f8b0 	bl	25e24 <hal_delay_us>
   22cc4:	2001      	movs	r0, #1
   22cc6:	f8d4 308c 	ldr.w	r3, [r4, #140]	; 0x8c
   22cca:	f443 7380 	orr.w	r3, r3, #256	; 0x100
   22cce:	f8c4 308c 	str.w	r3, [r4, #140]	; 0x8c
   22cd2:	f003 f8a7 	bl	25e24 <hal_delay_us>
   22cd6:	f8d4 308c 	ldr.w	r3, [r4, #140]	; 0x8c
   22cda:	2001      	movs	r0, #1
   22cdc:	f043 0301 	orr.w	r3, r3, #1
   22ce0:	f8c4 308c 	str.w	r3, [r4, #140]	; 0x8c
   22ce4:	f003 f89e 	bl	25e24 <hal_delay_us>
   22ce8:	f8d4 308c 	ldr.w	r3, [r4, #140]	; 0x8c
   22cec:	2100      	movs	r1, #0
   22cee:	4628      	mov	r0, r5
   22cf0:	f043 0330 	orr.w	r3, r3, #48	; 0x30
   22cf4:	f8c4 308c 	str.w	r3, [r4, #140]	; 0x8c
   22cf8:	f04f 3344 	mov.w	r3, #1145324612	; 0x44444444
   22cfc:	f8c4 3080 	str.w	r3, [r4, #128]	; 0x80
   22d00:	f8d4 3084 	ldr.w	r3, [r4, #132]	; 0x84
   22d04:	f423 1340 	bic.w	r3, r3, #3145728	; 0x300000
   22d08:	f023 0377 	bic.w	r3, r3, #119	; 0x77
   22d0c:	f443 1340 	orr.w	r3, r3, #3145728	; 0x300000
   22d10:	f043 0343 	orr.w	r3, r3, #67	; 0x43
   22d14:	f8c4 3084 	str.w	r3, [r4, #132]	; 0x84
   22d18:	f8d4 3088 	ldr.w	r3, [r4, #136]	; 0x88
   22d1c:	f423 43ee 	bic.w	r3, r3, #30464	; 0x7700
   22d20:	f023 0377 	bic.w	r3, r3, #119	; 0x77
   22d24:	f443 5308 	orr.w	r3, r3, #8704	; 0x2200
   22d28:	f043 0322 	orr.w	r3, r3, #34	; 0x22
   22d2c:	f8c4 3088 	str.w	r3, [r4, #136]	; 0x88
   22d30:	f000 ff1c 	bl	23b6c <dram_init_clk_frequency_dss>
   22d34:	6b22      	ldr	r2, [r4, #48]	; 0x30
   22d36:	4bba      	ldr	r3, [pc, #744]	; (23020 <hal_ddr2_phy_init+0x37c>)
   22d38:	200a      	movs	r0, #10
   22d3a:	f082 0103 	eor.w	r1, r2, #3
   22d3e:	4019      	ands	r1, r3
   22d40:	404a      	eors	r2, r1
   22d42:	6322      	str	r2, [r4, #48]	; 0x30
   22d44:	f8d4 20a4 	ldr.w	r2, [r4, #164]	; 0xa4
   22d48:	f082 0103 	eor.w	r1, r2, #3
   22d4c:	4019      	ands	r1, r3
   22d4e:	404a      	eors	r2, r1
   22d50:	f8c4 20a4 	str.w	r2, [r4, #164]	; 0xa4
   22d54:	6b62      	ldr	r2, [r4, #52]	; 0x34
   22d56:	f082 0103 	eor.w	r1, r2, #3
   22d5a:	4019      	ands	r1, r3
   22d5c:	404a      	eors	r2, r1
   22d5e:	6362      	str	r2, [r4, #52]	; 0x34
   22d60:	6ba2      	ldr	r2, [r4, #56]	; 0x38
   22d62:	f082 0103 	eor.w	r1, r2, #3
   22d66:	4019      	ands	r1, r3
   22d68:	404a      	eors	r2, r1
   22d6a:	63a2      	str	r2, [r4, #56]	; 0x38
   22d6c:	6c62      	ldr	r2, [r4, #68]	; 0x44
   22d6e:	f082 0103 	eor.w	r1, r2, #3
   22d72:	4019      	ands	r1, r3
   22d74:	404a      	eors	r2, r1
   22d76:	6462      	str	r2, [r4, #68]	; 0x44
   22d78:	6ca2      	ldr	r2, [r4, #72]	; 0x48
   22d7a:	f082 0103 	eor.w	r1, r2, #3
   22d7e:	4019      	ands	r1, r3
   22d80:	404a      	eors	r2, r1
   22d82:	64a2      	str	r2, [r4, #72]	; 0x48
   22d84:	6d62      	ldr	r2, [r4, #84]	; 0x54
   22d86:	f082 0103 	eor.w	r1, r2, #3
   22d8a:	400b      	ands	r3, r1
   22d8c:	405a      	eors	r2, r3
   22d8e:	6562      	str	r2, [r4, #84]	; 0x54
   22d90:	6963      	ldr	r3, [r4, #20]
   22d92:	f423 13f8 	bic.w	r3, r3, #2031616	; 0x1f0000
   22d96:	f443 2300 	orr.w	r3, r3, #524288	; 0x80000
   22d9a:	6163      	str	r3, [r4, #20]
   22d9c:	f8d4 3098 	ldr.w	r3, [r4, #152]	; 0x98
   22da0:	f023 131f 	bic.w	r3, r3, #2031647	; 0x1f001f
   22da4:	f423 53f8 	bic.w	r3, r3, #7936	; 0x1f00
   22da8:	f043 1308 	orr.w	r3, r3, #524296	; 0x80008
   22dac:	f443 6300 	orr.w	r3, r3, #2048	; 0x800
   22db0:	f8c4 3098 	str.w	r3, [r4, #152]	; 0x98
   22db4:	f003 f836 	bl	25e24 <hal_delay_us>
   22db8:	6822      	ldr	r2, [r4, #0]
   22dba:	4b9a      	ldr	r3, [pc, #616]	; (23024 <hal_ddr2_phy_init+0x380>)
   22dbc:	2001      	movs	r0, #1
   22dbe:	4013      	ands	r3, r2
   22dc0:	f443 7381 	orr.w	r3, r3, #258	; 0x102
   22dc4:	6023      	str	r3, [r4, #0]
   22dc6:	6823      	ldr	r3, [r4, #0]
   22dc8:	f043 4380 	orr.w	r3, r3, #1073741824	; 0x40000000
   22dcc:	6023      	str	r3, [r4, #0]
   22dce:	f003 f829 	bl	25e24 <hal_delay_us>
   22dd2:	f8d4 308c 	ldr.w	r3, [r4, #140]	; 0x8c
   22dd6:	2064      	movs	r0, #100	; 0x64
   22dd8:	f043 0302 	orr.w	r3, r3, #2
   22ddc:	f8c4 308c 	str.w	r3, [r4, #140]	; 0x8c
   22de0:	f003 f820 	bl	25e24 <hal_delay_us>
   22de4:	f8d4 308c 	ldr.w	r3, [r4, #140]	; 0x8c
   22de8:	f44f 70fa 	mov.w	r0, #500	; 0x1f4
   22dec:	f023 0308 	bic.w	r3, r3, #8
   22df0:	f8c4 308c 	str.w	r3, [r4, #140]	; 0x8c
   22df4:	f8d4 308c 	ldr.w	r3, [r4, #140]	; 0x8c
   22df8:	f043 030c 	orr.w	r3, r3, #12
   22dfc:	f8c4 308c 	str.w	r3, [r4, #140]	; 0x8c
   22e00:	f003 f810 	bl	25e24 <hal_delay_us>
   22e04:	68a3      	ldr	r3, [r4, #8]
   22e06:	2001      	movs	r0, #1
   22e08:	f043 4300 	orr.w	r3, r3, #2147483648	; 0x80000000
   22e0c:	60a3      	str	r3, [r4, #8]
   22e0e:	f003 f809 	bl	25e24 <hal_delay_us>
   22e12:	f240 2315 	movw	r3, #533	; 0x215
   22e16:	429d      	cmp	r5, r3
   22e18:	f000 815d 	beq.w	230d6 <hal_ddr2_phy_init+0x432>
   22e1c:	f5b5 7fc8 	cmp.w	r5, #400	; 0x190
   22e20:	f000 815b 	beq.w	230da <hal_ddr2_phy_init+0x436>
   22e24:	f240 134d 	movw	r3, #333	; 0x14d
   22e28:	429d      	cmp	r5, r3
   22e2a:	f000 8158 	beq.w	230de <hal_ddr2_phy_init+0x43a>
   22e2e:	2dc8      	cmp	r5, #200	; 0xc8
   22e30:	f000 8157 	beq.w	230e2 <hal_ddr2_phy_init+0x43e>
   22e34:	f5b5 7ff0 	cmp.w	r5, #480	; 0x1e0
   22e38:	bf0c      	ite	eq
   22e3a:	2304      	moveq	r3, #4
   22e3c:	2305      	movne	r3, #5
   22e3e:	4a7a      	ldr	r2, [pc, #488]	; (23028 <hal_ddr2_phy_init+0x384>)
   22e40:	211a      	movs	r1, #26
   22e42:	4c76      	ldr	r4, [pc, #472]	; (2301c <hal_ddr2_phy_init+0x378>)
   22e44:	4628      	mov	r0, r5
   22e46:	fb01 2103 	mla	r1, r1, r3, r2
   22e4a:	f000 fe47 	bl	23adc <dram_set_pll_frequency>
   22e4e:	2032      	movs	r0, #50	; 0x32
   22e50:	f002 ffe8 	bl	25e24 <hal_delay_us>
   22e54:	6863      	ldr	r3, [r4, #4]
   22e56:	2001      	movs	r0, #1
   22e58:	f423 53ff 	bic.w	r3, r3, #8160	; 0x1fe0
   22e5c:	f023 031f 	bic.w	r3, r3, #31
   22e60:	6063      	str	r3, [r4, #4]
   22e62:	f002 ffdf 	bl	25e24 <hal_delay_us>
   22e66:	68a3      	ldr	r3, [r4, #8]
   22e68:	2001      	movs	r0, #1
   22e6a:	f423 23e0 	bic.w	r3, r3, #458752	; 0x70000
   22e6e:	60a3      	str	r3, [r4, #8]
   22e70:	f002 ffd8 	bl	25e24 <hal_delay_us>
   22e74:	6863      	ldr	r3, [r4, #4]
   22e76:	2001      	movs	r0, #1
   22e78:	f423 53ff 	bic.w	r3, r3, #8160	; 0x1fe0
   22e7c:	f023 031f 	bic.w	r3, r3, #31
   22e80:	ea6f 3313 	mvn.w	r3, r3, lsr #12
   22e84:	ea6f 3303 	mvn.w	r3, r3, lsl #12
   22e88:	6063      	str	r3, [r4, #4]
   22e8a:	f002 ffcb 	bl	25e24 <hal_delay_us>
   22e8e:	68a3      	ldr	r3, [r4, #8]
   22e90:	2001      	movs	r0, #1
   22e92:	f443 23e0 	orr.w	r3, r3, #458752	; 0x70000
   22e96:	60a3      	str	r3, [r4, #8]
   22e98:	f002 ffc4 	bl	25e24 <hal_delay_us>
   22e9c:	f04f 43a0 	mov.w	r3, #1342177280	; 0x50000000
   22ea0:	f8d3 2884 	ldr.w	r2, [r3, #2180]	; 0x884
   22ea4:	0712      	lsls	r2, r2, #28
   22ea6:	d5fb      	bpl.n	22ea0 <hal_ddr2_phy_init+0x1fc>
   22ea8:	f8d3 2884 	ldr.w	r2, [r3, #2180]	; 0x884
   22eac:	f04f 3111 	mov.w	r1, #286331153	; 0x11111111
   22eb0:	f042 0202 	orr.w	r2, r2, #2
   22eb4:	f8c3 2884 	str.w	r2, [r3, #2180]	; 0x884
   22eb8:	4b58      	ldr	r3, [pc, #352]	; (2301c <hal_ddr2_phy_init+0x378>)
   22eba:	4a5c      	ldr	r2, [pc, #368]	; (2302c <hal_ddr2_phy_init+0x388>)
   22ebc:	f8c3 1190 	str.w	r1, [r3, #400]	; 0x190
   22ec0:	f8c3 2194 	str.w	r2, [r3, #404]	; 0x194
   22ec4:	f8c3 1198 	str.w	r1, [r3, #408]	; 0x198
   22ec8:	f8c3 219c 	str.w	r2, [r3, #412]	; 0x19c
   22ecc:	f8c3 11b0 	str.w	r1, [r3, #432]	; 0x1b0
   22ed0:	f8c3 21b4 	str.w	r2, [r3, #436]	; 0x1b4
   22ed4:	f8c3 11b8 	str.w	r1, [r3, #440]	; 0x1b8
   22ed8:	f06f 0188 	mvn.w	r1, #136	; 0x88
   22edc:	f8c3 21bc 	str.w	r2, [r3, #444]	; 0x1bc
   22ee0:	4a53      	ldr	r2, [pc, #332]	; (23030 <hal_ddr2_phy_init+0x38c>)
   22ee2:	f8c3 21c8 	str.w	r2, [r3, #456]	; 0x1c8
   22ee6:	f8c3 21cc 	str.w	r2, [r3, #460]	; 0x1cc
   22eea:	f04f 3277 	mov.w	r2, #2004318071	; 0x77777777
   22eee:	f8c3 21e0 	str.w	r2, [r3, #480]	; 0x1e0
   22ef2:	f8c3 21e4 	str.w	r2, [r3, #484]	; 0x1e4
   22ef6:	f8c3 11e8 	str.w	r1, [r3, #488]	; 0x1e8
   22efa:	f06f 2188 	mvn.w	r1, #2281736192	; 0x88008800
   22efe:	f8c3 11ec 	str.w	r1, [r3, #492]	; 0x1ec
   22f02:	f8c3 21f0 	str.w	r2, [r3, #496]	; 0x1f0
   22f06:	f8d3 2240 	ldr.w	r2, [r3, #576]	; 0x240
   22f0a:	f042 5286 	orr.w	r2, r2, #281018368	; 0x10c00000
   22f0e:	f8c3 2240 	str.w	r2, [r3, #576]	; 0x240
   22f12:	681a      	ldr	r2, [r3, #0]
   22f14:	f422 2281 	bic.w	r2, r2, #264192	; 0x40800
   22f18:	601a      	str	r2, [r3, #0]
   22f1a:	681a      	ldr	r2, [r3, #0]
   22f1c:	f022 0204 	bic.w	r2, r2, #4
   22f20:	601a      	str	r2, [r3, #0]
   22f22:	f8d3 2238 	ldr.w	r2, [r3, #568]	; 0x238
   22f26:	f022 0203 	bic.w	r2, r2, #3
   22f2a:	f042 0202 	orr.w	r2, r2, #2
   22f2e:	f8c3 2238 	str.w	r2, [r3, #568]	; 0x238
   22f32:	4a40      	ldr	r2, [pc, #256]	; (23034 <hal_ddr2_phy_init+0x390>)
   22f34:	f8c3 2154 	str.w	r2, [r3, #340]	; 0x154
   22f38:	f8d3 24e0 	ldr.w	r2, [r3, #1248]	; 0x4e0
   22f3c:	f022 0201 	bic.w	r2, r2, #1
   22f40:	f8c3 24e0 	str.w	r2, [r3, #1248]	; 0x4e0
   22f44:	f8d3 24e4 	ldr.w	r2, [r3, #1252]	; 0x4e4
   22f48:	f022 0201 	bic.w	r2, r2, #1
   22f4c:	f8c3 24e4 	str.w	r2, [r3, #1252]	; 0x4e4
   22f50:	f8d3 2238 	ldr.w	r2, [r3, #568]	; 0x238
   22f54:	f422 1240 	bic.w	r2, r2, #3145728	; 0x300000
   22f58:	f422 527c 	bic.w	r2, r2, #16128	; 0x3f00
   22f5c:	f442 5280 	orr.w	r2, r2, #4096	; 0x1000
   22f60:	f8c3 2238 	str.w	r2, [r3, #568]	; 0x238
   22f64:	f8d3 25f8 	ldr.w	r2, [r3, #1528]	; 0x5f8
   22f68:	f022 027f 	bic.w	r2, r2, #127	; 0x7f
   22f6c:	f042 0207 	orr.w	r2, r2, #7
   22f70:	f8c3 25f8 	str.w	r2, [r3, #1528]	; 0x5f8
   22f74:	f8d3 25fc 	ldr.w	r2, [r3, #1532]	; 0x5fc
   22f78:	f022 027f 	bic.w	r2, r2, #127	; 0x7f
   22f7c:	f042 0207 	orr.w	r2, r2, #7
   22f80:	f8c3 25fc 	str.w	r2, [r3, #1532]	; 0x5fc
   22f84:	f8d3 2170 	ldr.w	r2, [r3, #368]	; 0x170
   22f88:	f022 023f 	bic.w	r2, r2, #63	; 0x3f
   22f8c:	f042 0206 	orr.w	r2, r2, #6
   22f90:	f8c3 2170 	str.w	r2, [r3, #368]	; 0x170
   22f94:	691a      	ldr	r2, [r3, #16]
   22f96:	f022 021f 	bic.w	r2, r2, #31
   22f9a:	f042 0216 	orr.w	r2, r2, #22
   22f9e:	611a      	str	r2, [r3, #16]
   22fa0:	689a      	ldr	r2, [r3, #8]
   22fa2:	f042 0201 	orr.w	r2, r2, #1
   22fa6:	609a      	str	r2, [r3, #8]
   22fa8:	f8d3 2098 	ldr.w	r2, [r3, #152]	; 0x98
   22fac:	f022 52f8 	bic.w	r2, r2, #520093696	; 0x1f000000
   22fb0:	f8c3 2098 	str.w	r2, [r3, #152]	; 0x98
   22fb4:	691a      	ldr	r2, [r3, #16]
   22fb6:	f422 12f8 	bic.w	r2, r2, #2031616	; 0x1f0000
   22fba:	f442 12f0 	orr.w	r2, r2, #1966080	; 0x1e0000
   22fbe:	611a      	str	r2, [r3, #16]
   22fc0:	f8d3 2080 	ldr.w	r2, [r3, #128]	; 0x80
   22fc4:	f022 0270 	bic.w	r2, r2, #112	; 0x70
   22fc8:	f042 0230 	orr.w	r2, r2, #48	; 0x30
   22fcc:	f8c3 2080 	str.w	r2, [r3, #128]	; 0x80
   22fd0:	691a      	ldr	r2, [r3, #16]
   22fd2:	f022 52f8 	bic.w	r2, r2, #520093696	; 0x1f000000
   22fd6:	f042 52d8 	orr.w	r2, r2, #452984832	; 0x1b000000
   22fda:	611a      	str	r2, [r3, #16]
   22fdc:	f8d3 2080 	ldr.w	r2, [r3, #128]	; 0x80
   22fe0:	f422 42e0 	bic.w	r2, r2, #28672	; 0x7000
   22fe4:	f442 5240 	orr.w	r2, r2, #12288	; 0x3000
   22fe8:	f8c3 2080 	str.w	r2, [r3, #128]	; 0x80
   22fec:	689a      	ldr	r2, [r3, #8]
   22fee:	f042 0204 	orr.w	r2, r2, #4
   22ff2:	609a      	str	r2, [r3, #8]
   22ff4:	689a      	ldr	r2, [r3, #8]
   22ff6:	f042 0208 	orr.w	r2, r2, #8
   22ffa:	609a      	str	r2, [r3, #8]
   22ffc:	695a      	ldr	r2, [r3, #20]
   22ffe:	f422 12f8 	bic.w	r2, r2, #2031616	; 0x1f0000
   23002:	f442 22c0 	orr.w	r2, r2, #393216	; 0x60000
   23006:	615a      	str	r2, [r3, #20]
   23008:	e016      	b.n	23038 <hal_ddr2_phy_init+0x394>
   2300a:	bf00      	nop
   2300c:	0001a2b0 	.word	0x0001a2b0
   23010:	000f4240 	.word	0x000f4240
   23014:	100bc800 	.word	0x100bc800
   23018:	2010149d 	.word	0x2010149d
   2301c:	40608000 	.word	0x40608000
   23020:	20000007 	.word	0x20000007
   23024:	f7f7fecd 	.word	0xf7f7fecd
   23028:	00020a0c 	.word	0x00020a0c
   2302c:	18111111 	.word	0x18111111
   23030:	ffff7777 	.word	0xffff7777
   23034:	7c055555 	.word	0x7c055555
   23038:	f8d3 2098 	ldr.w	r2, [r3, #152]	; 0x98
   2303c:	f022 021f 	bic.w	r2, r2, #31
   23040:	f042 0204 	orr.w	r2, r2, #4
   23044:	f8c3 2098 	str.w	r2, [r3, #152]	; 0x98
   23048:	f04f 3288 	mov.w	r2, #2290649224	; 0x88888888
   2304c:	f8c3 2460 	str.w	r2, [r3, #1120]	; 0x460
   23050:	f8c3 2464 	str.w	r2, [r3, #1124]	; 0x464
   23054:	f640 0288 	movw	r2, #2184	; 0x888
   23058:	f8c3 2468 	str.w	r2, [r3, #1128]	; 0x468
   2305c:	f8c3 246c 	str.w	r2, [r3, #1132]	; 0x46c
   23060:	f8d3 223c 	ldr.w	r2, [r3, #572]	; 0x23c
   23064:	f042 0203 	orr.w	r2, r2, #3
   23068:	f8c3 223c 	str.w	r2, [r3, #572]	; 0x23c
   2306c:	f8d3 223c 	ldr.w	r2, [r3, #572]	; 0x23c
   23070:	f042 020c 	orr.w	r2, r2, #12
   23074:	f8c3 223c 	str.w	r2, [r3, #572]	; 0x23c
   23078:	f8d3 25f8 	ldr.w	r2, [r3, #1528]	; 0x5f8
   2307c:	f022 42f8 	bic.w	r2, r2, #2080374784	; 0x7c000000
   23080:	f042 5210 	orr.w	r2, r2, #603979776	; 0x24000000
   23084:	f8c3 25f8 	str.w	r2, [r3, #1528]	; 0x5f8
   23088:	f8d3 25fc 	ldr.w	r2, [r3, #1532]	; 0x5fc
   2308c:	f022 42f8 	bic.w	r2, r2, #2080374784	; 0x7c000000
   23090:	f042 5240 	orr.w	r2, r2, #805306368	; 0x30000000
   23094:	f8c3 25fc 	str.w	r2, [r3, #1532]	; 0x5fc
   23098:	f04f 3210 	mov.w	r2, #269488144	; 0x10101010
   2309c:	f8c3 2420 	str.w	r2, [r3, #1056]	; 0x420
   230a0:	f8c3 2424 	str.w	r2, [r3, #1060]	; 0x424
   230a4:	f8c3 2428 	str.w	r2, [r3, #1064]	; 0x428
   230a8:	f8c3 242c 	str.w	r2, [r3, #1068]	; 0x42c
   230ac:	f8c3 2438 	str.w	r2, [r3, #1080]	; 0x438
   230b0:	f8c3 243c 	str.w	r2, [r3, #1084]	; 0x43c
   230b4:	f8c3 2440 	str.w	r2, [r3, #1088]	; 0x440
   230b8:	f8c3 2444 	str.w	r2, [r3, #1092]	; 0x444
   230bc:	f8d3 223c 	ldr.w	r2, [r3, #572]	; 0x23c
   230c0:	f042 020c 	orr.w	r2, r2, #12
   230c4:	f8c3 223c 	str.w	r2, [r3, #572]	; 0x23c
   230c8:	f8d3 2238 	ldr.w	r2, [r3, #568]	; 0x238
   230cc:	f022 0203 	bic.w	r2, r2, #3
   230d0:	f8c3 2238 	str.w	r2, [r3, #568]	; 0x238
   230d4:	bd38      	pop	{r3, r4, r5, pc}
   230d6:	2300      	movs	r3, #0
   230d8:	e6b1      	b.n	22e3e <hal_ddr2_phy_init+0x19a>
   230da:	2301      	movs	r3, #1
   230dc:	e6af      	b.n	22e3e <hal_ddr2_phy_init+0x19a>
   230de:	2302      	movs	r3, #2
   230e0:	e6ad      	b.n	22e3e <hal_ddr2_phy_init+0x19a>
   230e2:	2303      	movs	r3, #3
   230e4:	e6ab      	b.n	22e3e <hal_ddr2_phy_init+0x19a>
   230e6:	bf00      	nop

000230e8 <hal_ddr3_phy_init>:
   230e8:	b538      	push	{r3, r4, r5, lr}
   230ea:	4bd9      	ldr	r3, [pc, #868]	; (23450 <hal_ddr3_phy_init+0x368>)
   230ec:	4dd9      	ldr	r5, [pc, #868]	; (23454 <hal_ddr3_phy_init+0x36c>)
   230ee:	781b      	ldrb	r3, [r3, #0]
   230f0:	fbb5 f5f0 	udiv	r5, r5, r0
   230f4:	b123      	cbz	r3, 23100 <hal_ddr3_phy_init+0x18>
   230f6:	4bd8      	ldr	r3, [pc, #864]	; (23458 <hal_ddr3_phy_init+0x370>)
   230f8:	4629      	mov	r1, r5
   230fa:	48d8      	ldr	r0, [pc, #864]	; (2345c <hal_ddr3_phy_init+0x374>)
   230fc:	69db      	ldr	r3, [r3, #28]
   230fe:	4798      	blx	r3
   23100:	4cd7      	ldr	r4, [pc, #860]	; (23460 <hal_ddr3_phy_init+0x378>)
   23102:	2001      	movs	r0, #1
   23104:	f002 fe8e 	bl	25e24 <hal_delay_us>
   23108:	2001      	movs	r0, #1
   2310a:	f8d4 308c 	ldr.w	r3, [r4, #140]	; 0x8c
   2310e:	f443 7380 	orr.w	r3, r3, #256	; 0x100
   23112:	f8c4 308c 	str.w	r3, [r4, #140]	; 0x8c
   23116:	f002 fe85 	bl	25e24 <hal_delay_us>
   2311a:	f8d4 308c 	ldr.w	r3, [r4, #140]	; 0x8c
   2311e:	2001      	movs	r0, #1
   23120:	f043 0301 	orr.w	r3, r3, #1
   23124:	f8c4 308c 	str.w	r3, [r4, #140]	; 0x8c
   23128:	f002 fe7c 	bl	25e24 <hal_delay_us>
   2312c:	f8d4 308c 	ldr.w	r3, [r4, #140]	; 0x8c
   23130:	2100      	movs	r1, #0
   23132:	4628      	mov	r0, r5
   23134:	f043 0330 	orr.w	r3, r3, #48	; 0x30
   23138:	f8c4 308c 	str.w	r3, [r4, #140]	; 0x8c
   2313c:	f04f 3344 	mov.w	r3, #1145324612	; 0x44444444
   23140:	f8c4 3080 	str.w	r3, [r4, #128]	; 0x80
   23144:	f8d4 3084 	ldr.w	r3, [r4, #132]	; 0x84
   23148:	f423 1340 	bic.w	r3, r3, #3145728	; 0x300000
   2314c:	f023 0377 	bic.w	r3, r3, #119	; 0x77
   23150:	f443 1340 	orr.w	r3, r3, #3145728	; 0x300000
   23154:	f043 0343 	orr.w	r3, r3, #67	; 0x43
   23158:	f8c4 3084 	str.w	r3, [r4, #132]	; 0x84
   2315c:	f8d4 3088 	ldr.w	r3, [r4, #136]	; 0x88
   23160:	f423 43ee 	bic.w	r3, r3, #30464	; 0x7700
   23164:	f023 0377 	bic.w	r3, r3, #119	; 0x77
   23168:	f443 5308 	orr.w	r3, r3, #8704	; 0x2200
   2316c:	f043 0322 	orr.w	r3, r3, #34	; 0x22
   23170:	f8c4 3088 	str.w	r3, [r4, #136]	; 0x88
   23174:	f000 fcfa 	bl	23b6c <dram_init_clk_frequency_dss>
   23178:	6b22      	ldr	r2, [r4, #48]	; 0x30
   2317a:	4bba      	ldr	r3, [pc, #744]	; (23464 <hal_ddr3_phy_init+0x37c>)
   2317c:	200a      	movs	r0, #10
   2317e:	f082 0103 	eor.w	r1, r2, #3
   23182:	4019      	ands	r1, r3
   23184:	404a      	eors	r2, r1
   23186:	6322      	str	r2, [r4, #48]	; 0x30
   23188:	f8d4 20a4 	ldr.w	r2, [r4, #164]	; 0xa4
   2318c:	f082 0103 	eor.w	r1, r2, #3
   23190:	4019      	ands	r1, r3
   23192:	404a      	eors	r2, r1
   23194:	f8c4 20a4 	str.w	r2, [r4, #164]	; 0xa4
   23198:	6b62      	ldr	r2, [r4, #52]	; 0x34
   2319a:	f082 0103 	eor.w	r1, r2, #3
   2319e:	4019      	ands	r1, r3
   231a0:	404a      	eors	r2, r1
   231a2:	6362      	str	r2, [r4, #52]	; 0x34
   231a4:	6ba2      	ldr	r2, [r4, #56]	; 0x38
   231a6:	f082 0103 	eor.w	r1, r2, #3
   231aa:	4019      	ands	r1, r3
   231ac:	404a      	eors	r2, r1
   231ae:	63a2      	str	r2, [r4, #56]	; 0x38
   231b0:	6c62      	ldr	r2, [r4, #68]	; 0x44
   231b2:	f082 0103 	eor.w	r1, r2, #3
   231b6:	4019      	ands	r1, r3
   231b8:	404a      	eors	r2, r1
   231ba:	6462      	str	r2, [r4, #68]	; 0x44
   231bc:	6ca2      	ldr	r2, [r4, #72]	; 0x48
   231be:	f082 0103 	eor.w	r1, r2, #3
   231c2:	4019      	ands	r1, r3
   231c4:	404a      	eors	r2, r1
   231c6:	64a2      	str	r2, [r4, #72]	; 0x48
   231c8:	6d62      	ldr	r2, [r4, #84]	; 0x54
   231ca:	f082 0103 	eor.w	r1, r2, #3
   231ce:	400b      	ands	r3, r1
   231d0:	405a      	eors	r2, r3
   231d2:	6562      	str	r2, [r4, #84]	; 0x54
   231d4:	6963      	ldr	r3, [r4, #20]
   231d6:	f423 13f8 	bic.w	r3, r3, #2031616	; 0x1f0000
   231da:	f443 2300 	orr.w	r3, r3, #524288	; 0x80000
   231de:	6163      	str	r3, [r4, #20]
   231e0:	f8d4 3098 	ldr.w	r3, [r4, #152]	; 0x98
   231e4:	f023 131f 	bic.w	r3, r3, #2031647	; 0x1f001f
   231e8:	f423 53f8 	bic.w	r3, r3, #7936	; 0x1f00
   231ec:	f043 1308 	orr.w	r3, r3, #524296	; 0x80008
   231f0:	f443 6300 	orr.w	r3, r3, #2048	; 0x800
   231f4:	f8c4 3098 	str.w	r3, [r4, #152]	; 0x98
   231f8:	f002 fe14 	bl	25e24 <hal_delay_us>
   231fc:	6822      	ldr	r2, [r4, #0]
   231fe:	4b9a      	ldr	r3, [pc, #616]	; (23468 <hal_ddr3_phy_init+0x380>)
   23200:	2001      	movs	r0, #1
   23202:	4013      	ands	r3, r2
   23204:	f443 2300 	orr.w	r3, r3, #524288	; 0x80000
   23208:	f043 0321 	orr.w	r3, r3, #33	; 0x21
   2320c:	6023      	str	r3, [r4, #0]
   2320e:	6823      	ldr	r3, [r4, #0]
   23210:	f043 4380 	orr.w	r3, r3, #1073741824	; 0x40000000
   23214:	6023      	str	r3, [r4, #0]
   23216:	f002 fe05 	bl	25e24 <hal_delay_us>
   2321a:	f8d4 308c 	ldr.w	r3, [r4, #140]	; 0x8c
   2321e:	2064      	movs	r0, #100	; 0x64
   23220:	f043 0302 	orr.w	r3, r3, #2
   23224:	f8c4 308c 	str.w	r3, [r4, #140]	; 0x8c
   23228:	f002 fdfc 	bl	25e24 <hal_delay_us>
   2322c:	f8d4 308c 	ldr.w	r3, [r4, #140]	; 0x8c
   23230:	2001      	movs	r0, #1
   23232:	f023 0308 	bic.w	r3, r3, #8
   23236:	f8c4 308c 	str.w	r3, [r4, #140]	; 0x8c
   2323a:	f8d4 308c 	ldr.w	r3, [r4, #140]	; 0x8c
   2323e:	f043 030c 	orr.w	r3, r3, #12
   23242:	f8c4 308c 	str.w	r3, [r4, #140]	; 0x8c
   23246:	f002 fded 	bl	25e24 <hal_delay_us>
   2324a:	68a3      	ldr	r3, [r4, #8]
   2324c:	2001      	movs	r0, #1
   2324e:	f043 4300 	orr.w	r3, r3, #2147483648	; 0x80000000
   23252:	60a3      	str	r3, [r4, #8]
   23254:	f002 fde6 	bl	25e24 <hal_delay_us>
   23258:	f240 2315 	movw	r3, #533	; 0x215
   2325c:	429d      	cmp	r5, r3
   2325e:	f000 8170 	beq.w	23542 <hal_ddr3_phy_init+0x45a>
   23262:	f5b5 7fc8 	cmp.w	r5, #400	; 0x190
   23266:	f000 816e 	beq.w	23546 <hal_ddr3_phy_init+0x45e>
   2326a:	f240 134d 	movw	r3, #333	; 0x14d
   2326e:	429d      	cmp	r5, r3
   23270:	f000 816b 	beq.w	2354a <hal_ddr3_phy_init+0x462>
   23274:	2dc8      	cmp	r5, #200	; 0xc8
   23276:	f000 816a 	beq.w	2354e <hal_ddr3_phy_init+0x466>
   2327a:	f5b5 7ff0 	cmp.w	r5, #480	; 0x1e0
   2327e:	bf0c      	ite	eq
   23280:	2304      	moveq	r3, #4
   23282:	2305      	movne	r3, #5
   23284:	4a79      	ldr	r2, [pc, #484]	; (2346c <hal_ddr3_phy_init+0x384>)
   23286:	211a      	movs	r1, #26
   23288:	4c75      	ldr	r4, [pc, #468]	; (23460 <hal_ddr3_phy_init+0x378>)
   2328a:	4628      	mov	r0, r5
   2328c:	fb01 2103 	mla	r1, r1, r3, r2
   23290:	f000 fc24 	bl	23adc <dram_set_pll_frequency>
   23294:	2032      	movs	r0, #50	; 0x32
   23296:	f002 fdc5 	bl	25e24 <hal_delay_us>
   2329a:	6863      	ldr	r3, [r4, #4]
   2329c:	2001      	movs	r0, #1
   2329e:	f423 53ff 	bic.w	r3, r3, #8160	; 0x1fe0
   232a2:	f023 031f 	bic.w	r3, r3, #31
   232a6:	6063      	str	r3, [r4, #4]
   232a8:	f002 fdbc 	bl	25e24 <hal_delay_us>
   232ac:	68a3      	ldr	r3, [r4, #8]
   232ae:	2001      	movs	r0, #1
   232b0:	f423 23e0 	bic.w	r3, r3, #458752	; 0x70000
   232b4:	60a3      	str	r3, [r4, #8]
   232b6:	f002 fdb5 	bl	25e24 <hal_delay_us>
   232ba:	6863      	ldr	r3, [r4, #4]
   232bc:	2001      	movs	r0, #1
   232be:	f423 53ff 	bic.w	r3, r3, #8160	; 0x1fe0
   232c2:	f023 031f 	bic.w	r3, r3, #31
   232c6:	ea6f 3313 	mvn.w	r3, r3, lsr #12
   232ca:	ea6f 3303 	mvn.w	r3, r3, lsl #12
   232ce:	6063      	str	r3, [r4, #4]
   232d0:	f002 fda8 	bl	25e24 <hal_delay_us>
   232d4:	68a3      	ldr	r3, [r4, #8]
   232d6:	2001      	movs	r0, #1
   232d8:	f443 23e0 	orr.w	r3, r3, #458752	; 0x70000
   232dc:	60a3      	str	r3, [r4, #8]
   232de:	f002 fda1 	bl	25e24 <hal_delay_us>
   232e2:	f04f 43a0 	mov.w	r3, #1342177280	; 0x50000000
   232e6:	f8d3 2884 	ldr.w	r2, [r3, #2180]	; 0x884
   232ea:	0712      	lsls	r2, r2, #28
   232ec:	d5fb      	bpl.n	232e6 <hal_ddr3_phy_init+0x1fe>
   232ee:	f8d3 2884 	ldr.w	r2, [r3, #2180]	; 0x884
   232f2:	2003      	movs	r0, #3
   232f4:	f042 0202 	orr.w	r2, r2, #2
   232f8:	f8c3 2884 	str.w	r2, [r3, #2180]	; 0x884
   232fc:	f000 f9aa 	bl	23654 <dram_r480_calibration>
   23300:	2003      	movs	r0, #3
   23302:	f000 fa1d 	bl	23740 <dram_zq_calibration>
   23306:	4b56      	ldr	r3, [pc, #344]	; (23460 <hal_ddr3_phy_init+0x378>)
   23308:	4a59      	ldr	r2, [pc, #356]	; (23470 <hal_ddr3_phy_init+0x388>)
   2330a:	f8c3 21c0 	str.w	r2, [r3, #448]	; 0x1c0
   2330e:	f8c3 21c4 	str.w	r2, [r3, #452]	; 0x1c4
   23312:	4a58      	ldr	r2, [pc, #352]	; (23474 <hal_ddr3_phy_init+0x38c>)
   23314:	f8c3 21c8 	str.w	r2, [r3, #456]	; 0x1c8
   23318:	f8c3 21cc 	str.w	r2, [r3, #460]	; 0x1cc
   2331c:	3211      	adds	r2, #17
   2331e:	f8c3 21d0 	str.w	r2, [r3, #464]	; 0x1d0
   23322:	f8c3 21d4 	str.w	r2, [r3, #468]	; 0x1d4
   23326:	4a54      	ldr	r2, [pc, #336]	; (23478 <hal_ddr3_phy_init+0x390>)
   23328:	f8c3 21d8 	str.w	r2, [r3, #472]	; 0x1d8
   2332c:	f8c3 21dc 	str.w	r2, [r3, #476]	; 0x1dc
   23330:	2200      	movs	r2, #0
   23332:	f8c3 21e0 	str.w	r2, [r3, #480]	; 0x1e0
   23336:	f8c3 21e4 	str.w	r2, [r3, #484]	; 0x1e4
   2333a:	4a50      	ldr	r2, [pc, #320]	; (2347c <hal_ddr3_phy_init+0x394>)
   2333c:	f8c3 21e8 	str.w	r2, [r3, #488]	; 0x1e8
   23340:	f06f 22cc 	mvn.w	r2, #3422604288	; 0xcc00cc00
   23344:	f8c3 21ec 	str.w	r2, [r3, #492]	; 0x1ec
   23348:	f04f 3255 	mov.w	r2, #1431655765	; 0x55555555
   2334c:	f8c3 21f0 	str.w	r2, [r3, #496]	; 0x1f0
   23350:	f04f 3222 	mov.w	r2, #572662306	; 0x22222222
   23354:	f8c3 2204 	str.w	r2, [r3, #516]	; 0x204
   23358:	f8c3 2208 	str.w	r2, [r3, #520]	; 0x208
   2335c:	f8c3 220c 	str.w	r2, [r3, #524]	; 0x20c
   23360:	f8c3 2210 	str.w	r2, [r3, #528]	; 0x210
   23364:	f8c3 2214 	str.w	r2, [r3, #532]	; 0x214
   23368:	f8c3 2218 	str.w	r2, [r3, #536]	; 0x218
   2336c:	f8c3 221c 	str.w	r2, [r3, #540]	; 0x21c
   23370:	f8c3 2220 	str.w	r2, [r3, #544]	; 0x220
   23374:	f8c3 2224 	str.w	r2, [r3, #548]	; 0x224
   23378:	f06f 02cc 	mvn.w	r2, #204	; 0xcc
   2337c:	f8c3 2228 	str.w	r2, [r3, #552]	; 0x228
   23380:	4a3f      	ldr	r2, [pc, #252]	; (23480 <hal_ddr3_phy_init+0x398>)
   23382:	f8c3 222c 	str.w	r2, [r3, #556]	; 0x22c
   23386:	4a3f      	ldr	r2, [pc, #252]	; (23484 <hal_ddr3_phy_init+0x39c>)
   23388:	f8c3 2230 	str.w	r2, [r3, #560]	; 0x230
   2338c:	f243 3233 	movw	r2, #13107	; 0x3333
   23390:	f8c3 2234 	str.w	r2, [r3, #564]	; 0x234
   23394:	f8d3 2240 	ldr.w	r2, [r3, #576]	; 0x240
   23398:	f042 5286 	orr.w	r2, r2, #281018368	; 0x10c00000
   2339c:	f8c3 2240 	str.w	r2, [r3, #576]	; 0x240
   233a0:	681a      	ldr	r2, [r3, #0]
   233a2:	f422 2281 	bic.w	r2, r2, #264192	; 0x40800
   233a6:	601a      	str	r2, [r3, #0]
   233a8:	681a      	ldr	r2, [r3, #0]
   233aa:	f022 0204 	bic.w	r2, r2, #4
   233ae:	601a      	str	r2, [r3, #0]
   233b0:	f8d3 2238 	ldr.w	r2, [r3, #568]	; 0x238
   233b4:	f022 0203 	bic.w	r2, r2, #3
   233b8:	f042 0202 	orr.w	r2, r2, #2
   233bc:	f8c3 2238 	str.w	r2, [r3, #568]	; 0x238
   233c0:	4a31      	ldr	r2, [pc, #196]	; (23488 <hal_ddr3_phy_init+0x3a0>)
   233c2:	f8c3 2154 	str.w	r2, [r3, #340]	; 0x154
   233c6:	f8d3 24e0 	ldr.w	r2, [r3, #1248]	; 0x4e0
   233ca:	f022 0201 	bic.w	r2, r2, #1
   233ce:	f8c3 24e0 	str.w	r2, [r3, #1248]	; 0x4e0
   233d2:	f8d3 24e4 	ldr.w	r2, [r3, #1252]	; 0x4e4
   233d6:	f022 0201 	bic.w	r2, r2, #1
   233da:	f8c3 24e4 	str.w	r2, [r3, #1252]	; 0x4e4
   233de:	4a2b      	ldr	r2, [pc, #172]	; (2348c <hal_ddr3_phy_init+0x3a4>)
   233e0:	f8d3 1238 	ldr.w	r1, [r3, #568]	; 0x238
   233e4:	400a      	ands	r2, r1
   233e6:	f442 5280 	orr.w	r2, r2, #4096	; 0x1000
   233ea:	f042 0202 	orr.w	r2, r2, #2
   233ee:	f8c3 2238 	str.w	r2, [r3, #568]	; 0x238
   233f2:	f8d3 25f8 	ldr.w	r2, [r3, #1528]	; 0x5f8
   233f6:	f022 027f 	bic.w	r2, r2, #127	; 0x7f
   233fa:	f042 0209 	orr.w	r2, r2, #9
   233fe:	f8c3 25f8 	str.w	r2, [r3, #1528]	; 0x5f8
   23402:	f8d3 25fc 	ldr.w	r2, [r3, #1532]	; 0x5fc
   23406:	f022 027f 	bic.w	r2, r2, #127	; 0x7f
   2340a:	f042 0209 	orr.w	r2, r2, #9
   2340e:	f8c3 25fc 	str.w	r2, [r3, #1532]	; 0x5fc
   23412:	2206      	movs	r2, #6
   23414:	f8c3 2170 	str.w	r2, [r3, #368]	; 0x170
   23418:	691a      	ldr	r2, [r3, #16]
   2341a:	f022 021f 	bic.w	r2, r2, #31
   2341e:	f042 0216 	orr.w	r2, r2, #22
   23422:	611a      	str	r2, [r3, #16]
   23424:	689a      	ldr	r2, [r3, #8]
   23426:	f042 0201 	orr.w	r2, r2, #1
   2342a:	609a      	str	r2, [r3, #8]
   2342c:	f8d3 2098 	ldr.w	r2, [r3, #152]	; 0x98
   23430:	f042 52f8 	orr.w	r2, r2, #520093696	; 0x1f000000
   23434:	f8c3 2098 	str.w	r2, [r3, #152]	; 0x98
   23438:	689a      	ldr	r2, [r3, #8]
   2343a:	f442 6280 	orr.w	r2, r2, #1024	; 0x400
   2343e:	609a      	str	r2, [r3, #8]
   23440:	691a      	ldr	r2, [r3, #16]
   23442:	f422 12f8 	bic.w	r2, r2, #2031616	; 0x1f0000
   23446:	f442 3280 	orr.w	r2, r2, #65536	; 0x10000
   2344a:	611a      	str	r2, [r3, #16]
   2344c:	e020      	b.n	23490 <hal_ddr3_phy_init+0x3a8>
   2344e:	bf00      	nop
   23450:	0001a2b0 	.word	0x0001a2b0
   23454:	000f4240 	.word	0x000f4240
   23458:	100bc800 	.word	0x100bc800
   2345c:	2010149d 	.word	0x2010149d
   23460:	40608000 	.word	0x40608000
   23464:	20000007 	.word	0x20000007
   23468:	f7f7ec0c 	.word	0xf7f7ec0c
   2346c:	00020a0c 	.word	0x00020a0c
   23470:	ffff4444 	.word	0xffff4444
   23474:	ffff0000 	.word	0xffff0000
   23478:	ffff1100 	.word	0xffff1100
   2347c:	ffff3333 	.word	0xffff3333
   23480:	ffff2222 	.word	0xffff2222
   23484:	22ff2277 	.word	0x22ff2277
   23488:	7c055555 	.word	0x7c055555
   2348c:	ffdfc0fc 	.word	0xffdfc0fc
   23490:	691a      	ldr	r2, [r3, #16]
   23492:	f022 52f8 	bic.w	r2, r2, #520093696	; 0x1f000000
   23496:	611a      	str	r2, [r3, #16]
   23498:	695a      	ldr	r2, [r3, #20]
   2349a:	f422 12f8 	bic.w	r2, r2, #2031616	; 0x1f0000
   2349e:	f442 2210 	orr.w	r2, r2, #589824	; 0x90000
   234a2:	615a      	str	r2, [r3, #20]
   234a4:	f8d3 2098 	ldr.w	r2, [r3, #152]	; 0x98
   234a8:	f022 021f 	bic.w	r2, r2, #31
   234ac:	f042 0208 	orr.w	r2, r2, #8
   234b0:	f8c3 2098 	str.w	r2, [r3, #152]	; 0x98
   234b4:	f04f 3288 	mov.w	r2, #2290649224	; 0x88888888
   234b8:	f8c3 2460 	str.w	r2, [r3, #1120]	; 0x460
   234bc:	f8c3 2464 	str.w	r2, [r3, #1124]	; 0x464
   234c0:	f640 0288 	movw	r2, #2184	; 0x888
   234c4:	f8c3 2468 	str.w	r2, [r3, #1128]	; 0x468
   234c8:	f8c3 246c 	str.w	r2, [r3, #1132]	; 0x46c
   234cc:	f8d3 223c 	ldr.w	r2, [r3, #572]	; 0x23c
   234d0:	f042 0203 	orr.w	r2, r2, #3
   234d4:	f8c3 223c 	str.w	r2, [r3, #572]	; 0x23c
   234d8:	f8d3 223c 	ldr.w	r2, [r3, #572]	; 0x23c
   234dc:	f042 020c 	orr.w	r2, r2, #12
   234e0:	f8c3 223c 	str.w	r2, [r3, #572]	; 0x23c
   234e4:	f8d3 25f8 	ldr.w	r2, [r3, #1528]	; 0x5f8
   234e8:	f022 42f8 	bic.w	r2, r2, #2080374784	; 0x7c000000
   234ec:	f042 5200 	orr.w	r2, r2, #536870912	; 0x20000000
   234f0:	f8c3 25f8 	str.w	r2, [r3, #1528]	; 0x5f8
   234f4:	f8d3 25fc 	ldr.w	r2, [r3, #1532]	; 0x5fc
   234f8:	f022 42f8 	bic.w	r2, r2, #2080374784	; 0x7c000000
   234fc:	f042 5210 	orr.w	r2, r2, #603979776	; 0x24000000
   23500:	f8c3 25fc 	str.w	r2, [r3, #1532]	; 0x5fc
   23504:	f04f 3210 	mov.w	r2, #269488144	; 0x10101010
   23508:	f8c3 2420 	str.w	r2, [r3, #1056]	; 0x420
   2350c:	f8c3 2424 	str.w	r2, [r3, #1060]	; 0x424
   23510:	f8c3 2428 	str.w	r2, [r3, #1064]	; 0x428
   23514:	f8c3 242c 	str.w	r2, [r3, #1068]	; 0x42c
   23518:	f8c3 2438 	str.w	r2, [r3, #1080]	; 0x438
   2351c:	f8c3 243c 	str.w	r2, [r3, #1084]	; 0x43c
   23520:	f8c3 2440 	str.w	r2, [r3, #1088]	; 0x440
   23524:	f8c3 2444 	str.w	r2, [r3, #1092]	; 0x444
   23528:	f8d3 223c 	ldr.w	r2, [r3, #572]	; 0x23c
   2352c:	f042 020c 	orr.w	r2, r2, #12
   23530:	f8c3 223c 	str.w	r2, [r3, #572]	; 0x23c
   23534:	f8d3 2238 	ldr.w	r2, [r3, #568]	; 0x238
   23538:	f022 0203 	bic.w	r2, r2, #3
   2353c:	f8c3 2238 	str.w	r2, [r3, #568]	; 0x238
   23540:	bd38      	pop	{r3, r4, r5, pc}
   23542:	2300      	movs	r3, #0
   23544:	e69e      	b.n	23284 <hal_ddr3_phy_init+0x19c>
   23546:	2301      	movs	r3, #1
   23548:	e69c      	b.n	23284 <hal_ddr3_phy_init+0x19c>
   2354a:	2302      	movs	r3, #2
   2354c:	e69a      	b.n	23284 <hal_ddr3_phy_init+0x19c>
   2354e:	2303      	movs	r3, #3
   23550:	e698      	b.n	23284 <hal_ddr3_phy_init+0x19c>
   23552:	bf00      	nop

00023554 <hal_init_dram>:
   23554:	b507      	push	{r0, r1, r2, lr}
   23556:	4b31      	ldr	r3, [pc, #196]	; (2361c <hal_init_dram+0xc8>)
   23558:	2200      	movs	r2, #0
   2355a:	a801      	add	r0, sp, #4
   2355c:	9201      	str	r2, [sp, #4]
   2355e:	f8c3 2080 	str.w	r2, [r3, #128]	; 0x80
   23562:	f8c3 2084 	str.w	r2, [r3, #132]	; 0x84
   23566:	2211      	movs	r2, #17
   23568:	f8c3 2080 	str.w	r2, [r3, #128]	; 0x80
   2356c:	22d5      	movs	r2, #213	; 0xd5
   2356e:	f8c3 2084 	str.w	r2, [r3, #132]	; 0x84
   23572:	f009 fa3d 	bl	2c9f0 <hal_sys_get_chip_id>
   23576:	9a01      	ldr	r2, [sp, #4]
   23578:	4929      	ldr	r1, [pc, #164]	; (23620 <hal_init_dram+0xcc>)
   2357a:	f3c2 4301 	ubfx	r3, r2, #16, #2
   2357e:	7809      	ldrb	r1, [r1, #0]
   23580:	2b03      	cmp	r3, #3
   23582:	ea4f 0392 	mov.w	r3, r2, lsr #2
   23586:	f003 0303 	and.w	r3, r3, #3
   2358a:	d129      	bne.n	235e0 <hal_init_dram+0x8c>
   2358c:	2b03      	cmp	r3, #3
   2358e:	d000      	beq.n	23592 <hal_init_dram+0x3e>
   23590:	b9fb      	cbnz	r3, 235d2 <hal_init_dram+0x7e>
   23592:	f012 0f30 	tst.w	r2, #48	; 0x30
   23596:	d11e      	bne.n	235d6 <hal_init_dram+0x82>
   23598:	4b22      	ldr	r3, [pc, #136]	; (23624 <hal_init_dram+0xd0>)
   2359a:	4a23      	ldr	r2, [pc, #140]	; (23628 <hal_init_dram+0xd4>)
   2359c:	601a      	str	r2, [r3, #0]
   2359e:	68db      	ldr	r3, [r3, #12]
   235a0:	4a22      	ldr	r2, [pc, #136]	; (2362c <hal_init_dram+0xd8>)
   235a2:	66da      	str	r2, [r3, #108]	; 0x6c
   235a4:	b119      	cbz	r1, 235ae <hal_init_dram+0x5a>
   235a6:	4b22      	ldr	r3, [pc, #136]	; (23630 <hal_init_dram+0xdc>)
   235a8:	4822      	ldr	r0, [pc, #136]	; (23634 <hal_init_dram+0xe0>)
   235aa:	69db      	ldr	r3, [r3, #28]
   235ac:	4798      	blx	r3
   235ae:	f240 7054 	movw	r0, #1876	; 0x754
   235b2:	f7ff fb77 	bl	22ca4 <hal_ddr2_phy_init>
   235b6:	491b      	ldr	r1, [pc, #108]	; (23624 <hal_init_dram+0xd0>)
   235b8:	481f      	ldr	r0, [pc, #124]	; (23638 <hal_init_dram+0xe4>)
   235ba:	f7fe fd67 	bl	2208c <hal_dramc_perf_tune>
   235be:	4919      	ldr	r1, [pc, #100]	; (23624 <hal_init_dram+0xd0>)
   235c0:	481d      	ldr	r0, [pc, #116]	; (23638 <hal_init_dram+0xe4>)
   235c2:	f7ff f829 	bl	22618 <hal_dramc_init>
   235c6:	481d      	ldr	r0, [pc, #116]	; (2363c <hal_init_dram+0xe8>)
   235c8:	f7fe fd2a 	bl	22020 <hal_dramc_ftend_init>
   235cc:	b003      	add	sp, #12
   235ce:	f85d fb04 	ldr.w	pc, [sp], #4
   235d2:	2b01      	cmp	r3, #1
   235d4:	d0e0      	beq.n	23598 <hal_init_dram+0x44>
   235d6:	2900      	cmp	r1, #0
   235d8:	d0e9      	beq.n	235ae <hal_init_dram+0x5a>
   235da:	4b15      	ldr	r3, [pc, #84]	; (23630 <hal_init_dram+0xdc>)
   235dc:	4818      	ldr	r0, [pc, #96]	; (23640 <hal_init_dram+0xec>)
   235de:	e7e4      	b.n	235aa <hal_init_dram+0x56>
   235e0:	2b03      	cmp	r3, #3
   235e2:	d000      	beq.n	235e6 <hal_init_dram+0x92>
   235e4:	b91b      	cbnz	r3, 235ee <hal_init_dram+0x9a>
   235e6:	f3c2 1201 	ubfx	r2, r2, #4, #2
   235ea:	2a02      	cmp	r2, #2
   235ec:	d103      	bne.n	235f6 <hal_init_dram+0xa2>
   235ee:	b159      	cbz	r1, 23608 <hal_init_dram+0xb4>
   235f0:	4b0f      	ldr	r3, [pc, #60]	; (23630 <hal_init_dram+0xdc>)
   235f2:	4814      	ldr	r0, [pc, #80]	; (23644 <hal_init_dram+0xf0>)
   235f4:	e006      	b.n	23604 <hal_init_dram+0xb0>
   235f6:	4b14      	ldr	r3, [pc, #80]	; (23648 <hal_init_dram+0xf4>)
   235f8:	4a14      	ldr	r2, [pc, #80]	; (2364c <hal_init_dram+0xf8>)
   235fa:	68db      	ldr	r3, [r3, #12]
   235fc:	66da      	str	r2, [r3, #108]	; 0x6c
   235fe:	b119      	cbz	r1, 23608 <hal_init_dram+0xb4>
   23600:	4b0b      	ldr	r3, [pc, #44]	; (23630 <hal_init_dram+0xdc>)
   23602:	4813      	ldr	r0, [pc, #76]	; (23650 <hal_init_dram+0xfc>)
   23604:	69db      	ldr	r3, [r3, #28]
   23606:	4798      	blx	r3
   23608:	f240 7054 	movw	r0, #1876	; 0x754
   2360c:	f7ff fd6c 	bl	230e8 <hal_ddr3_phy_init>
   23610:	490d      	ldr	r1, [pc, #52]	; (23648 <hal_init_dram+0xf4>)
   23612:	4809      	ldr	r0, [pc, #36]	; (23638 <hal_init_dram+0xe4>)
   23614:	f7fe fd3a 	bl	2208c <hal_dramc_perf_tune>
   23618:	490b      	ldr	r1, [pc, #44]	; (23648 <hal_init_dram+0xf4>)
   2361a:	e7d1      	b.n	235c0 <hal_init_dram+0x6c>
   2361c:	50000800 	.word	0x50000800
   23620:	0001a2b0 	.word	0x0001a2b0
   23624:	00020b34 	.word	0x00020b34
   23628:	00020ab4 	.word	0x00020ab4
   2362c:	000209ac 	.word	0x000209ac
   23630:	100bc800 	.word	0x100bc800
   23634:	201014ad 	.word	0x201014ad
   23638:	40604000 	.word	0x40604000
   2363c:	40605000 	.word	0x40605000
   23640:	201014c7 	.word	0x201014c7
   23644:	201014e2 	.word	0x201014e2
   23648:	00020c84 	.word	0x00020c84
   2364c:	000209ec 	.word	0x000209ec
   23650:	201014fe 	.word	0x201014fe

00023654 <dram_r480_calibration>:
   23654:	b570      	push	{r4, r5, r6, lr}
   23656:	4d2e      	ldr	r5, [pc, #184]	; (23710 <dram_r480_calibration+0xbc>)
   23658:	4604      	mov	r4, r0
   2365a:	686b      	ldr	r3, [r5, #4]
   2365c:	681b      	ldr	r3, [r3, #0]
   2365e:	0058      	lsls	r0, r3, #1
   23660:	d503      	bpl.n	2366a <dram_r480_calibration+0x16>
   23662:	4b2c      	ldr	r3, [pc, #176]	; (23714 <dram_r480_calibration+0xc0>)
   23664:	482c      	ldr	r0, [pc, #176]	; (23718 <dram_r480_calibration+0xc4>)
   23666:	69db      	ldr	r3, [r3, #28]
   23668:	4798      	blx	r3
   2366a:	f04f 42a0 	mov.w	r2, #1342177280	; 0x50000000
   2366e:	2c02      	cmp	r4, #2
   23670:	482a      	ldr	r0, [pc, #168]	; (2371c <dram_r480_calibration+0xc8>)
   23672:	f8d2 3920 	ldr.w	r3, [r2, #2336]	; 0x920
   23676:	bf0c      	ite	eq
   23678:	2108      	moveq	r1, #8
   2367a:	21ee      	movne	r1, #238	; 0xee
   2367c:	4c28      	ldr	r4, [pc, #160]	; (23720 <dram_r480_calibration+0xcc>)
   2367e:	f443 0398 	orr.w	r3, r3, #4980736	; 0x4c0000
   23682:	f8c2 3920 	str.w	r3, [r2, #2336]	; 0x920
   23686:	4b26      	ldr	r3, [pc, #152]	; (23720 <dram_r480_calibration+0xcc>)
   23688:	4a26      	ldr	r2, [pc, #152]	; (23724 <dram_r480_calibration+0xd0>)
   2368a:	f8c3 21f4 	str.w	r2, [r3, #500]	; 0x1f4
   2368e:	22ff      	movs	r2, #255	; 0xff
   23690:	f7ff fb02 	bl	22c98 <cpu_read_modify_write>
   23694:	686b      	ldr	r3, [r5, #4]
   23696:	681b      	ldr	r3, [r3, #0]
   23698:	f013 4f80 	tst.w	r3, #1073741824	; 0x40000000
   2369c:	d005      	beq.n	236aa <dram_r480_calibration+0x56>
   2369e:	4b1d      	ldr	r3, [pc, #116]	; (23714 <dram_r480_calibration+0xc0>)
   236a0:	f8d4 11fc 	ldr.w	r1, [r4, #508]	; 0x1fc
   236a4:	4820      	ldr	r0, [pc, #128]	; (23728 <dram_r480_calibration+0xd4>)
   236a6:	69db      	ldr	r3, [r3, #28]
   236a8:	4798      	blx	r3
   236aa:	2300      	movs	r3, #0
   236ac:	2203      	movs	r2, #3
   236ae:	2102      	movs	r1, #2
   236b0:	481e      	ldr	r0, [pc, #120]	; (2372c <dram_r480_calibration+0xd8>)
   236b2:	f8c4 313c 	str.w	r3, [r4, #316]	; 0x13c
   236b6:	4b1e      	ldr	r3, [pc, #120]	; (23730 <dram_r480_calibration+0xdc>)
   236b8:	f8c4 3130 	str.w	r3, [r4, #304]	; 0x130
   236bc:	f7ff faec 	bl	22c98 <cpu_read_modify_write>
   236c0:	f8d4 323c 	ldr.w	r3, [r4, #572]	; 0x23c
   236c4:	200a      	movs	r0, #10
   236c6:	f043 030c 	orr.w	r3, r3, #12
   236ca:	f8c4 323c 	str.w	r3, [r4, #572]	; 0x23c
   236ce:	f002 fba9 	bl	25e24 <hal_delay_us>
   236d2:	4b18      	ldr	r3, [pc, #96]	; (23734 <dram_r480_calibration+0xe0>)
   236d4:	f8c4 3130 	str.w	r3, [r4, #304]	; 0x130
   236d8:	4c11      	ldr	r4, [pc, #68]	; (23720 <dram_r480_calibration+0xcc>)
   236da:	f8d4 314c 	ldr.w	r3, [r4, #332]	; 0x14c
   236de:	07d9      	lsls	r1, r3, #31
   236e0:	d5fb      	bpl.n	236da <dram_r480_calibration+0x86>
   236e2:	686b      	ldr	r3, [r5, #4]
   236e4:	681b      	ldr	r3, [r3, #0]
   236e6:	005a      	lsls	r2, r3, #1
   236e8:	d50d      	bpl.n	23706 <dram_r480_calibration+0xb2>
   236ea:	4b0a      	ldr	r3, [pc, #40]	; (23714 <dram_r480_calibration+0xc0>)
   236ec:	f8d4 1140 	ldr.w	r1, [r4, #320]	; 0x140
   236f0:	69de      	ldr	r6, [r3, #28]
   236f2:	4811      	ldr	r0, [pc, #68]	; (23738 <dram_r480_calibration+0xe4>)
   236f4:	47b0      	blx	r6
   236f6:	686b      	ldr	r3, [r5, #4]
   236f8:	681b      	ldr	r3, [r3, #0]
   236fa:	005b      	lsls	r3, r3, #1
   236fc:	d503      	bpl.n	23706 <dram_r480_calibration+0xb2>
   236fe:	f8d4 114c 	ldr.w	r1, [r4, #332]	; 0x14c
   23702:	480e      	ldr	r0, [pc, #56]	; (2373c <dram_r480_calibration+0xe8>)
   23704:	47b0      	blx	r6
   23706:	4b06      	ldr	r3, [pc, #24]	; (23720 <dram_r480_calibration+0xcc>)
   23708:	4a09      	ldr	r2, [pc, #36]	; (23730 <dram_r480_calibration+0xdc>)
   2370a:	f8c3 2130 	str.w	r2, [r3, #304]	; 0x130
   2370e:	bd70      	pop	{r4, r5, r6, pc}
   23710:	10000e10 	.word	0x10000e10
   23714:	100bc800 	.word	0x100bc800
   23718:	2010151a 	.word	0x2010151a
   2371c:	406081fc 	.word	0x406081fc
   23720:	40608000 	.word	0x40608000
   23724:	901b0000 	.word	0x901b0000
   23728:	2010152f 	.word	0x2010152f
   2372c:	40608238 	.word	0x40608238
   23730:	03000c99 	.word	0x03000c99
   23734:	03010c99 	.word	0x03010c99
   23738:	2010155c 	.word	0x2010155c
   2373c:	2010157f 	.word	0x2010157f

00023740 <dram_zq_calibration>:
   23740:	b570      	push	{r4, r5, r6, lr}
   23742:	4dc4      	ldr	r5, [pc, #784]	; (23a54 <dram_zq_calibration+0x314>)
   23744:	4606      	mov	r6, r0
   23746:	686b      	ldr	r3, [r5, #4]
   23748:	681b      	ldr	r3, [r3, #0]
   2374a:	0058      	lsls	r0, r3, #1
   2374c:	d503      	bpl.n	23756 <dram_zq_calibration+0x16>
   2374e:	4bc2      	ldr	r3, [pc, #776]	; (23a58 <dram_zq_calibration+0x318>)
   23750:	48c2      	ldr	r0, [pc, #776]	; (23a5c <dram_zq_calibration+0x31c>)
   23752:	69db      	ldr	r3, [r3, #28]
   23754:	4798      	blx	r3
   23756:	f04f 42a0 	mov.w	r2, #1342177280	; 0x50000000
   2375a:	4cc1      	ldr	r4, [pc, #772]	; (23a60 <dram_zq_calibration+0x320>)
   2375c:	2e02      	cmp	r6, #2
   2375e:	48c1      	ldr	r0, [pc, #772]	; (23a64 <dram_zq_calibration+0x324>)
   23760:	f8d2 3920 	ldr.w	r3, [r2, #2336]	; 0x920
   23764:	f04f 0600 	mov.w	r6, #0
   23768:	bf0c      	ite	eq
   2376a:	2118      	moveq	r1, #24
   2376c:	21e4      	movne	r1, #228	; 0xe4
   2376e:	f443 0398 	orr.w	r3, r3, #4980736	; 0x4c0000
   23772:	f8c2 3920 	str.w	r3, [r2, #2336]	; 0x920
   23776:	22ff      	movs	r2, #255	; 0xff
   23778:	4bbb      	ldr	r3, [pc, #748]	; (23a68 <dram_zq_calibration+0x328>)
   2377a:	f8c4 31f4 	str.w	r3, [r4, #500]	; 0x1f4
   2377e:	f7ff fa8b 	bl	22c98 <cpu_read_modify_write>
   23782:	4bba      	ldr	r3, [pc, #744]	; (23a6c <dram_zq_calibration+0x32c>)
   23784:	2203      	movs	r2, #3
   23786:	2102      	movs	r1, #2
   23788:	48b9      	ldr	r0, [pc, #740]	; (23a70 <dram_zq_calibration+0x330>)
   2378a:	f8c4 613c 	str.w	r6, [r4, #316]	; 0x13c
   2378e:	f8c4 3130 	str.w	r3, [r4, #304]	; 0x130
   23792:	f7ff fa81 	bl	22c98 <cpu_read_modify_write>
   23796:	f8d4 323c 	ldr.w	r3, [r4, #572]	; 0x23c
   2379a:	200a      	movs	r0, #10
   2379c:	f043 030c 	orr.w	r3, r3, #12
   237a0:	f8c4 323c 	str.w	r3, [r4, #572]	; 0x23c
   237a4:	f002 fb3e 	bl	25e24 <hal_delay_us>
   237a8:	f04f 42e0 	mov.w	r2, #1879048192	; 0x70000000
   237ac:	4631      	mov	r1, r6
   237ae:	48b1      	ldr	r0, [pc, #708]	; (23a74 <dram_zq_calibration+0x334>)
   237b0:	f7ff fa72 	bl	22c98 <cpu_read_modify_write>
   237b4:	4bb0      	ldr	r3, [pc, #704]	; (23a78 <dram_zq_calibration+0x338>)
   237b6:	f8c4 32e8 	str.w	r3, [r4, #744]	; 0x2e8
   237ba:	f44f 738f 	mov.w	r3, #286	; 0x11e
   237be:	f8c4 3308 	str.w	r3, [r4, #776]	; 0x308
   237c2:	f8d4 3130 	ldr.w	r3, [r4, #304]	; 0x130
   237c6:	f043 7380 	orr.w	r3, r3, #16777216	; 0x1000000
   237ca:	f8c4 3130 	str.w	r3, [r4, #304]	; 0x130
   237ce:	4ba4      	ldr	r3, [pc, #656]	; (23a60 <dram_zq_calibration+0x320>)
   237d0:	f8d3 2140 	ldr.w	r2, [r3, #320]	; 0x140
   237d4:	2a00      	cmp	r2, #0
   237d6:	dafb      	bge.n	237d0 <dram_zq_calibration+0x90>
   237d8:	f8d3 2130 	ldr.w	r2, [r3, #304]	; 0x130
   237dc:	f022 7280 	bic.w	r2, r2, #16777216	; 0x1000000
   237e0:	f8c3 2130 	str.w	r2, [r3, #304]	; 0x130
   237e4:	686a      	ldr	r2, [r5, #4]
   237e6:	6812      	ldr	r2, [r2, #0]
   237e8:	0051      	lsls	r1, r2, #1
   237ea:	d505      	bpl.n	237f8 <dram_zq_calibration+0xb8>
   237ec:	f8d3 1144 	ldr.w	r1, [r3, #324]	; 0x144
   237f0:	4b99      	ldr	r3, [pc, #612]	; (23a58 <dram_zq_calibration+0x318>)
   237f2:	48a2      	ldr	r0, [pc, #648]	; (23a7c <dram_zq_calibration+0x33c>)
   237f4:	69db      	ldr	r3, [r3, #28]
   237f6:	4798      	blx	r3
   237f8:	f04f 42e0 	mov.w	r2, #1879048192	; 0x70000000
   237fc:	f04f 5180 	mov.w	r1, #268435456	; 0x10000000
   23800:	489c      	ldr	r0, [pc, #624]	; (23a74 <dram_zq_calibration+0x334>)
   23802:	f7ff fa49 	bl	22c98 <cpu_read_modify_write>
   23806:	4b96      	ldr	r3, [pc, #600]	; (23a60 <dram_zq_calibration+0x320>)
   23808:	4a9d      	ldr	r2, [pc, #628]	; (23a80 <dram_zq_calibration+0x340>)
   2380a:	f8c3 22ec 	str.w	r2, [r3, #748]	; 0x2ec
   2380e:	223c      	movs	r2, #60	; 0x3c
   23810:	f8c3 230c 	str.w	r2, [r3, #780]	; 0x30c
   23814:	f8d3 2130 	ldr.w	r2, [r3, #304]	; 0x130
   23818:	f042 7280 	orr.w	r2, r2, #16777216	; 0x1000000
   2381c:	f8c3 2130 	str.w	r2, [r3, #304]	; 0x130
   23820:	f8d3 2140 	ldr.w	r2, [r3, #320]	; 0x140
   23824:	2a00      	cmp	r2, #0
   23826:	dafb      	bge.n	23820 <dram_zq_calibration+0xe0>
   23828:	f8d3 2130 	ldr.w	r2, [r3, #304]	; 0x130
   2382c:	f022 7280 	bic.w	r2, r2, #16777216	; 0x1000000
   23830:	f8c3 2130 	str.w	r2, [r3, #304]	; 0x130
   23834:	686a      	ldr	r2, [r5, #4]
   23836:	6812      	ldr	r2, [r2, #0]
   23838:	0052      	lsls	r2, r2, #1
   2383a:	d505      	bpl.n	23848 <dram_zq_calibration+0x108>
   2383c:	f8d3 1144 	ldr.w	r1, [r3, #324]	; 0x144
   23840:	4b85      	ldr	r3, [pc, #532]	; (23a58 <dram_zq_calibration+0x318>)
   23842:	4890      	ldr	r0, [pc, #576]	; (23a84 <dram_zq_calibration+0x344>)
   23844:	69db      	ldr	r3, [r3, #28]
   23846:	4798      	blx	r3
   23848:	f04f 42e0 	mov.w	r2, #1879048192	; 0x70000000
   2384c:	f04f 5100 	mov.w	r1, #536870912	; 0x20000000
   23850:	4888      	ldr	r0, [pc, #544]	; (23a74 <dram_zq_calibration+0x334>)
   23852:	f7ff fa21 	bl	22c98 <cpu_read_modify_write>
   23856:	4b82      	ldr	r3, [pc, #520]	; (23a60 <dram_zq_calibration+0x320>)
   23858:	4a8b      	ldr	r2, [pc, #556]	; (23a88 <dram_zq_calibration+0x348>)
   2385a:	f8c3 22f0 	str.w	r2, [r3, #752]	; 0x2f0
   2385e:	f44f 7280 	mov.w	r2, #256	; 0x100
   23862:	f8c3 2310 	str.w	r2, [r3, #784]	; 0x310
   23866:	f8d3 2130 	ldr.w	r2, [r3, #304]	; 0x130
   2386a:	f042 7280 	orr.w	r2, r2, #16777216	; 0x1000000
   2386e:	f8c3 2130 	str.w	r2, [r3, #304]	; 0x130
   23872:	f8d3 2140 	ldr.w	r2, [r3, #320]	; 0x140
   23876:	2a00      	cmp	r2, #0
   23878:	dafb      	bge.n	23872 <dram_zq_calibration+0x132>
   2387a:	f8d3 2130 	ldr.w	r2, [r3, #304]	; 0x130
   2387e:	f022 7280 	bic.w	r2, r2, #16777216	; 0x1000000
   23882:	f8c3 2130 	str.w	r2, [r3, #304]	; 0x130
   23886:	686a      	ldr	r2, [r5, #4]
   23888:	6812      	ldr	r2, [r2, #0]
   2388a:	0056      	lsls	r6, r2, #1
   2388c:	d505      	bpl.n	2389a <dram_zq_calibration+0x15a>
   2388e:	f8d3 1144 	ldr.w	r1, [r3, #324]	; 0x144
   23892:	4b71      	ldr	r3, [pc, #452]	; (23a58 <dram_zq_calibration+0x318>)
   23894:	487d      	ldr	r0, [pc, #500]	; (23a8c <dram_zq_calibration+0x34c>)
   23896:	69db      	ldr	r3, [r3, #28]
   23898:	4798      	blx	r3
   2389a:	f04f 42e0 	mov.w	r2, #1879048192	; 0x70000000
   2389e:	f04f 5140 	mov.w	r1, #805306368	; 0x30000000
   238a2:	4874      	ldr	r0, [pc, #464]	; (23a74 <dram_zq_calibration+0x334>)
   238a4:	f7ff f9f8 	bl	22c98 <cpu_read_modify_write>
   238a8:	4b6d      	ldr	r3, [pc, #436]	; (23a60 <dram_zq_calibration+0x320>)
   238aa:	4a79      	ldr	r2, [pc, #484]	; (23a90 <dram_zq_calibration+0x350>)
   238ac:	f8c3 22f4 	str.w	r2, [r3, #756]	; 0x2f4
   238b0:	2230      	movs	r2, #48	; 0x30
   238b2:	f8c3 2314 	str.w	r2, [r3, #788]	; 0x314
   238b6:	f8d3 2130 	ldr.w	r2, [r3, #304]	; 0x130
   238ba:	f042 7280 	orr.w	r2, r2, #16777216	; 0x1000000
   238be:	f8c3 2130 	str.w	r2, [r3, #304]	; 0x130
   238c2:	f8d3 2140 	ldr.w	r2, [r3, #320]	; 0x140
   238c6:	2a00      	cmp	r2, #0
   238c8:	dafb      	bge.n	238c2 <dram_zq_calibration+0x182>
   238ca:	f8d3 2130 	ldr.w	r2, [r3, #304]	; 0x130
   238ce:	f022 7280 	bic.w	r2, r2, #16777216	; 0x1000000
   238d2:	f8c3 2130 	str.w	r2, [r3, #304]	; 0x130
   238d6:	686a      	ldr	r2, [r5, #4]
   238d8:	6812      	ldr	r2, [r2, #0]
   238da:	0054      	lsls	r4, r2, #1
   238dc:	d505      	bpl.n	238ea <dram_zq_calibration+0x1aa>
   238de:	f8d3 1144 	ldr.w	r1, [r3, #324]	; 0x144
   238e2:	4b5d      	ldr	r3, [pc, #372]	; (23a58 <dram_zq_calibration+0x318>)
   238e4:	486b      	ldr	r0, [pc, #428]	; (23a94 <dram_zq_calibration+0x354>)
   238e6:	69db      	ldr	r3, [r3, #28]
   238e8:	4798      	blx	r3
   238ea:	f04f 42e0 	mov.w	r2, #1879048192	; 0x70000000
   238ee:	f04f 4180 	mov.w	r1, #1073741824	; 0x40000000
   238f2:	4860      	ldr	r0, [pc, #384]	; (23a74 <dram_zq_calibration+0x334>)
   238f4:	f7ff f9d0 	bl	22c98 <cpu_read_modify_write>
   238f8:	4b59      	ldr	r3, [pc, #356]	; (23a60 <dram_zq_calibration+0x320>)
   238fa:	4a67      	ldr	r2, [pc, #412]	; (23a98 <dram_zq_calibration+0x358>)
   238fc:	f8c3 22f8 	str.w	r2, [r3, #760]	; 0x2f8
   23900:	f44f 7290 	mov.w	r2, #288	; 0x120
   23904:	f8c3 2318 	str.w	r2, [r3, #792]	; 0x318
   23908:	f8d3 2130 	ldr.w	r2, [r3, #304]	; 0x130
   2390c:	f042 7280 	orr.w	r2, r2, #16777216	; 0x1000000
   23910:	f8c3 2130 	str.w	r2, [r3, #304]	; 0x130
   23914:	f8d3 2140 	ldr.w	r2, [r3, #320]	; 0x140
   23918:	2a00      	cmp	r2, #0
   2391a:	dafb      	bge.n	23914 <dram_zq_calibration+0x1d4>
   2391c:	f8d3 2130 	ldr.w	r2, [r3, #304]	; 0x130
   23920:	f022 7280 	bic.w	r2, r2, #16777216	; 0x1000000
   23924:	f8c3 2130 	str.w	r2, [r3, #304]	; 0x130
   23928:	686a      	ldr	r2, [r5, #4]
   2392a:	6812      	ldr	r2, [r2, #0]
   2392c:	0050      	lsls	r0, r2, #1
   2392e:	d505      	bpl.n	2393c <dram_zq_calibration+0x1fc>
   23930:	f8d3 1144 	ldr.w	r1, [r3, #324]	; 0x144
   23934:	4b48      	ldr	r3, [pc, #288]	; (23a58 <dram_zq_calibration+0x318>)
   23936:	4859      	ldr	r0, [pc, #356]	; (23a9c <dram_zq_calibration+0x35c>)
   23938:	69db      	ldr	r3, [r3, #28]
   2393a:	4798      	blx	r3
   2393c:	f04f 42e0 	mov.w	r2, #1879048192	; 0x70000000
   23940:	f04f 41a0 	mov.w	r1, #1342177280	; 0x50000000
   23944:	484b      	ldr	r0, [pc, #300]	; (23a74 <dram_zq_calibration+0x334>)
   23946:	f7ff f9a7 	bl	22c98 <cpu_read_modify_write>
   2394a:	4b45      	ldr	r3, [pc, #276]	; (23a60 <dram_zq_calibration+0x320>)
   2394c:	4a54      	ldr	r2, [pc, #336]	; (23aa0 <dram_zq_calibration+0x360>)
   2394e:	f8c3 22fc 	str.w	r2, [r3, #764]	; 0x2fc
   23952:	221e      	movs	r2, #30
   23954:	f8c3 231c 	str.w	r2, [r3, #796]	; 0x31c
   23958:	f8d3 2130 	ldr.w	r2, [r3, #304]	; 0x130
   2395c:	f042 7280 	orr.w	r2, r2, #16777216	; 0x1000000
   23960:	f8c3 2130 	str.w	r2, [r3, #304]	; 0x130
   23964:	f8d3 2140 	ldr.w	r2, [r3, #320]	; 0x140
   23968:	2a00      	cmp	r2, #0
   2396a:	dafb      	bge.n	23964 <dram_zq_calibration+0x224>
   2396c:	f8d3 2130 	ldr.w	r2, [r3, #304]	; 0x130
   23970:	f022 7280 	bic.w	r2, r2, #16777216	; 0x1000000
   23974:	f8c3 2130 	str.w	r2, [r3, #304]	; 0x130
   23978:	686a      	ldr	r2, [r5, #4]
   2397a:	6812      	ldr	r2, [r2, #0]
   2397c:	0051      	lsls	r1, r2, #1
   2397e:	d505      	bpl.n	2398c <dram_zq_calibration+0x24c>
   23980:	f8d3 1144 	ldr.w	r1, [r3, #324]	; 0x144
   23984:	4b34      	ldr	r3, [pc, #208]	; (23a58 <dram_zq_calibration+0x318>)
   23986:	4847      	ldr	r0, [pc, #284]	; (23aa4 <dram_zq_calibration+0x364>)
   23988:	69db      	ldr	r3, [r3, #28]
   2398a:	4798      	blx	r3
   2398c:	f04f 42e0 	mov.w	r2, #1879048192	; 0x70000000
   23990:	f04f 41c0 	mov.w	r1, #1610612736	; 0x60000000
   23994:	4837      	ldr	r0, [pc, #220]	; (23a74 <dram_zq_calibration+0x334>)
   23996:	f7ff f97f 	bl	22c98 <cpu_read_modify_write>
   2399a:	4b31      	ldr	r3, [pc, #196]	; (23a60 <dram_zq_calibration+0x320>)
   2399c:	4a42      	ldr	r2, [pc, #264]	; (23aa8 <dram_zq_calibration+0x368>)
   2399e:	f8c3 2300 	str.w	r2, [r3, #768]	; 0x300
   239a2:	f44f 7284 	mov.w	r2, #264	; 0x108
   239a6:	f8c3 2320 	str.w	r2, [r3, #800]	; 0x320
   239aa:	f8d3 2130 	ldr.w	r2, [r3, #304]	; 0x130
   239ae:	f042 7280 	orr.w	r2, r2, #16777216	; 0x1000000
   239b2:	f8c3 2130 	str.w	r2, [r3, #304]	; 0x130
   239b6:	f8d3 2140 	ldr.w	r2, [r3, #320]	; 0x140
   239ba:	2a00      	cmp	r2, #0
   239bc:	dafb      	bge.n	239b6 <dram_zq_calibration+0x276>
   239be:	f8d3 2130 	ldr.w	r2, [r3, #304]	; 0x130
   239c2:	f022 7280 	bic.w	r2, r2, #16777216	; 0x1000000
   239c6:	f8c3 2130 	str.w	r2, [r3, #304]	; 0x130
   239ca:	686a      	ldr	r2, [r5, #4]
   239cc:	6812      	ldr	r2, [r2, #0]
   239ce:	0052      	lsls	r2, r2, #1
   239d0:	d505      	bpl.n	239de <dram_zq_calibration+0x29e>
   239d2:	f8d3 1144 	ldr.w	r1, [r3, #324]	; 0x144
   239d6:	4b20      	ldr	r3, [pc, #128]	; (23a58 <dram_zq_calibration+0x318>)
   239d8:	4834      	ldr	r0, [pc, #208]	; (23aac <dram_zq_calibration+0x36c>)
   239da:	69db      	ldr	r3, [r3, #28]
   239dc:	4798      	blx	r3
   239de:	4b20      	ldr	r3, [pc, #128]	; (23a60 <dram_zq_calibration+0x320>)
   239e0:	f8d3 2184 	ldr.w	r2, [r3, #388]	; 0x184
   239e4:	f022 527c 	bic.w	r2, r2, #1056964608	; 0x3f000000
   239e8:	f8c3 2184 	str.w	r2, [r3, #388]	; 0x184
   239ec:	f8d3 218c 	ldr.w	r2, [r3, #396]	; 0x18c
   239f0:	f022 527c 	bic.w	r2, r2, #1056964608	; 0x3f000000
   239f4:	f8c3 218c 	str.w	r2, [r3, #396]	; 0x18c
   239f8:	f8d3 2194 	ldr.w	r2, [r3, #404]	; 0x194
   239fc:	f022 527c 	bic.w	r2, r2, #1056964608	; 0x3f000000
   23a00:	f8c3 2194 	str.w	r2, [r3, #404]	; 0x194
   23a04:	f8d3 219c 	ldr.w	r2, [r3, #412]	; 0x19c
   23a08:	f022 527c 	bic.w	r2, r2, #1056964608	; 0x3f000000
   23a0c:	f8c3 219c 	str.w	r2, [r3, #412]	; 0x19c
   23a10:	f8d3 21a4 	ldr.w	r2, [r3, #420]	; 0x1a4
   23a14:	f022 527c 	bic.w	r2, r2, #1056964608	; 0x3f000000
   23a18:	f8c3 21a4 	str.w	r2, [r3, #420]	; 0x1a4
   23a1c:	f8d3 21ac 	ldr.w	r2, [r3, #428]	; 0x1ac
   23a20:	f022 527c 	bic.w	r2, r2, #1056964608	; 0x3f000000
   23a24:	f8c3 21ac 	str.w	r2, [r3, #428]	; 0x1ac
   23a28:	f8d3 21b4 	ldr.w	r2, [r3, #436]	; 0x1b4
   23a2c:	f022 527c 	bic.w	r2, r2, #1056964608	; 0x3f000000
   23a30:	f8c3 21b4 	str.w	r2, [r3, #436]	; 0x1b4
   23a34:	f8d3 21bc 	ldr.w	r2, [r3, #444]	; 0x1bc
   23a38:	f022 527c 	bic.w	r2, r2, #1056964608	; 0x3f000000
   23a3c:	f8c3 21bc 	str.w	r2, [r3, #444]	; 0x1bc
   23a40:	f8d3 2130 	ldr.w	r2, [r3, #304]	; 0x130
   23a44:	f042 6200 	orr.w	r2, r2, #134217728	; 0x8000000
   23a48:	f442 2280 	orr.w	r2, r2, #262144	; 0x40000
   23a4c:	f8c3 2130 	str.w	r2, [r3, #304]	; 0x130
   23a50:	e02e      	b.n	23ab0 <dram_zq_calibration+0x370>
   23a52:	bf00      	nop
   23a54:	10000e10 	.word	0x10000e10
   23a58:	100bc800 	.word	0x100bc800
   23a5c:	201015a7 	.word	0x201015a7
   23a60:	40608000 	.word	0x40608000
   23a64:	406081fc 	.word	0x406081fc
   23a68:	901b0000 	.word	0x901b0000
   23a6c:	0e000c99 	.word	0x0e000c99
   23a70:	40608238 	.word	0x40608238
   23a74:	40608130 	.word	0x40608130
   23a78:	0014011e 	.word	0x0014011e
   23a7c:	201015ba 	.word	0x201015ba
   23a80:	0010003c 	.word	0x0010003c
   23a84:	201015e2 	.word	0x201015e2
   23a88:	00080100 	.word	0x00080100
   23a8c:	2010160a 	.word	0x2010160a
   23a90:	00030030 	.word	0x00030030
   23a94:	20101632 	.word	0x20101632
   23a98:	000f0120 	.word	0x000f0120
   23a9c:	2010165a 	.word	0x2010165a
   23aa0:	0020001e 	.word	0x0020001e
   23aa4:	20101682 	.word	0x20101682
   23aa8:	003c0108 	.word	0x003c0108
   23aac:	201016aa 	.word	0x201016aa
   23ab0:	f8d3 21f8 	ldr.w	r2, [r3, #504]	; 0x1f8
   23ab4:	f042 0240 	orr.w	r2, r2, #64	; 0x40
   23ab8:	f8c3 21f8 	str.w	r2, [r3, #504]	; 0x1f8
   23abc:	f8d3 21f4 	ldr.w	r2, [r3, #500]	; 0x1f4
   23ac0:	f442 2280 	orr.w	r2, r2, #262144	; 0x40000
   23ac4:	f8c3 21f4 	str.w	r2, [r3, #500]	; 0x1f4
   23ac8:	f04f 42a0 	mov.w	r2, #1342177280	; 0x50000000
   23acc:	f8d2 3920 	ldr.w	r3, [r2, #2336]	; 0x920
   23ad0:	f423 0398 	bic.w	r3, r3, #4980736	; 0x4c0000
   23ad4:	f8c2 3920 	str.w	r3, [r2, #2336]	; 0x920
   23ad8:	bd70      	pop	{r4, r5, r6, pc}
   23ada:	bf00      	nop

00023adc <dram_set_pll_frequency>:
   23adc:	f5b0 7fc8 	cmp.w	r0, #400	; 0x190
   23ae0:	b508      	push	{r3, lr}
   23ae2:	d309      	bcc.n	23af8 <dram_set_pll_frequency+0x1c>
   23ae4:	f5b0 7ffa 	cmp.w	r0, #500	; 0x1f4
   23ae8:	bf3c      	itt	cc
   23aea:	2301      	movcc	r3, #1
   23aec:	80cb      	strhcc	r3, [r1, #6]
   23aee:	f5b0 7fdc 	cmp.w	r0, #440	; 0x1b8
   23af2:	bf3c      	itt	cc
   23af4:	2301      	movcc	r3, #1
   23af6:	800b      	strhcc	r3, [r1, #0]
   23af8:	888b      	ldrh	r3, [r1, #4]
   23afa:	884a      	ldrh	r2, [r1, #2]
   23afc:	011b      	lsls	r3, r3, #4
   23afe:	ea43 0382 	orr.w	r3, r3, r2, lsl #2
   23b02:	880a      	ldrh	r2, [r1, #0]
   23b04:	4313      	orrs	r3, r2
   23b06:	88ca      	ldrh	r2, [r1, #6]
   23b08:	ea43 2302 	orr.w	r3, r3, r2, lsl #8
   23b0c:	890a      	ldrh	r2, [r1, #8]
   23b0e:	ea43 3302 	orr.w	r3, r3, r2, lsl #12
   23b12:	894a      	ldrh	r2, [r1, #10]
   23b14:	ea43 3342 	orr.w	r3, r3, r2, lsl #13
   23b18:	898a      	ldrh	r2, [r1, #12]
   23b1a:	ea43 4302 	orr.w	r3, r3, r2, lsl #16
   23b1e:	89ca      	ldrh	r2, [r1, #14]
   23b20:	ea43 43c2 	orr.w	r3, r3, r2, lsl #19
   23b24:	8a0a      	ldrh	r2, [r1, #16]
   23b26:	ea43 5382 	orr.w	r3, r3, r2, lsl #22
   23b2a:	8a4a      	ldrh	r2, [r1, #18]
   23b2c:	ea43 53c2 	orr.w	r3, r3, r2, lsl #23
   23b30:	8a8a      	ldrh	r2, [r1, #20]
   23b32:	ea43 6342 	orr.w	r3, r3, r2, lsl #25
   23b36:	8aca      	ldrh	r2, [r1, #22]
   23b38:	8b09      	ldrh	r1, [r1, #24]
   23b3a:	ea43 63c2 	orr.w	r3, r3, r2, lsl #27
   23b3e:	ea43 7141 	orr.w	r1, r3, r1, lsl #29
   23b42:	4b06      	ldr	r3, [pc, #24]	; (23b5c <dram_set_pll_frequency+0x80>)
   23b44:	6199      	str	r1, [r3, #24]
   23b46:	4b06      	ldr	r3, [pc, #24]	; (23b60 <dram_set_pll_frequency+0x84>)
   23b48:	685b      	ldr	r3, [r3, #4]
   23b4a:	681b      	ldr	r3, [r3, #0]
   23b4c:	005b      	lsls	r3, r3, #1
   23b4e:	d503      	bpl.n	23b58 <dram_set_pll_frequency+0x7c>
   23b50:	4b04      	ldr	r3, [pc, #16]	; (23b64 <dram_set_pll_frequency+0x88>)
   23b52:	4805      	ldr	r0, [pc, #20]	; (23b68 <dram_set_pll_frequency+0x8c>)
   23b54:	69db      	ldr	r3, [r3, #28]
   23b56:	4798      	blx	r3
   23b58:	bd08      	pop	{r3, pc}
   23b5a:	bf00      	nop
   23b5c:	40608000 	.word	0x40608000
   23b60:	10000e10 	.word	0x10000e10
   23b64:	100bc800 	.word	0x100bc800
   23b68:	201016d2 	.word	0x201016d2

00023b6c <dram_init_clk_frequency_dss>:
   23b6c:	f44f 737a 	mov.w	r3, #1000	; 0x3e8
   23b70:	e92d 4ff7 	stmdb	sp!, {r0, r1, r2, r4, r5, r6, r7, r8, r9, sl, fp, lr}
   23b74:	fb03 f400 	mul.w	r4, r3, r0
   23b78:	2228      	movs	r2, #40	; 0x28
   23b7a:	4e5e      	ldr	r6, [pc, #376]	; (23cf4 <dram_init_clk_frequency_dss+0x188>)
   23b7c:	460d      	mov	r5, r1
   23b7e:	fbb0 f7f2 	udiv	r7, r0, r2
   23b82:	fbb4 f4f2 	udiv	r4, r4, r2
   23b86:	f1a7 0a03 	sub.w	sl, r7, #3
   23b8a:	f6a4 34b8 	subw	r4, r4, #3000	; 0xbb8
   23b8e:	fb03 441a 	mls	r4, r3, sl, r4
   23b92:	02e4      	lsls	r4, r4, #11
   23b94:	fbb4 f4f3 	udiv	r4, r4, r3
   23b98:	6873      	ldr	r3, [r6, #4]
   23b9a:	681b      	ldr	r3, [r3, #0]
   23b9c:	0058      	lsls	r0, r3, #1
   23b9e:	d505      	bpl.n	23bac <dram_init_clk_frequency_dss+0x40>
   23ba0:	4b55      	ldr	r3, [pc, #340]	; (23cf8 <dram_init_clk_frequency_dss+0x18c>)
   23ba2:	4622      	mov	r2, r4
   23ba4:	4651      	mov	r1, sl
   23ba6:	4855      	ldr	r0, [pc, #340]	; (23cfc <dram_init_clk_frequency_dss+0x190>)
   23ba8:	69db      	ldr	r3, [r3, #28]
   23baa:	4798      	blx	r3
   23bac:	ea4f 4804 	mov.w	r8, r4, lsl #16
   23bb0:	ea4f 290a 	mov.w	r9, sl, lsl #8
   23bb4:	2d00      	cmp	r5, #0
   23bb6:	f000 808d 	beq.w	23cd4 <dram_init_clk_frequency_dss+0x168>
   23bba:	6873      	ldr	r3, [r6, #4]
   23bbc:	eb04 27c7 	add.w	r7, r4, r7, lsl #11
   23bc0:	f1c5 0564 	rsb	r5, r5, #100	; 0x64
   23bc4:	f04f 0b64 	mov.w	fp, #100	; 0x64
   23bc8:	681b      	ldr	r3, [r3, #0]
   23bca:	437d      	muls	r5, r7
   23bcc:	0059      	lsls	r1, r3, #1
   23bce:	fbb5 fbfb 	udiv	fp, r5, fp
   23bd2:	d504      	bpl.n	23bde <dram_init_clk_frequency_dss+0x72>
   23bd4:	4b48      	ldr	r3, [pc, #288]	; (23cf8 <dram_init_clk_frequency_dss+0x18c>)
   23bd6:	4659      	mov	r1, fp
   23bd8:	4849      	ldr	r0, [pc, #292]	; (23d00 <dram_init_clk_frequency_dss+0x194>)
   23bda:	69db      	ldr	r3, [r3, #28]
   23bdc:	4798      	blx	r3
   23bde:	f44f 3748 	mov.w	r7, #204800	; 0x32000
   23be2:	fbb5 f5f7 	udiv	r5, r5, r7
   23be6:	02eb      	lsls	r3, r5, #11
   23be8:	1eef      	subs	r7, r5, #3
   23bea:	ebab 25c5 	sub.w	r5, fp, r5, lsl #11
   23bee:	9301      	str	r3, [sp, #4]
   23bf0:	6873      	ldr	r3, [r6, #4]
   23bf2:	681b      	ldr	r3, [r3, #0]
   23bf4:	005a      	lsls	r2, r3, #1
   23bf6:	d505      	bpl.n	23c04 <dram_init_clk_frequency_dss+0x98>
   23bf8:	4b3f      	ldr	r3, [pc, #252]	; (23cf8 <dram_init_clk_frequency_dss+0x18c>)
   23bfa:	462a      	mov	r2, r5
   23bfc:	4639      	mov	r1, r7
   23bfe:	4841      	ldr	r0, [pc, #260]	; (23d04 <dram_init_clk_frequency_dss+0x198>)
   23c00:	69db      	ldr	r3, [r3, #28]
   23c02:	4798      	blx	r3
   23c04:	eb04 21ca 	add.w	r1, r4, sl, lsl #11
   23c08:	9b01      	ldr	r3, [sp, #4]
   23c0a:	f240 225e 	movw	r2, #606	; 0x25e
   23c0e:	4419      	add	r1, r3
   23c10:	6873      	ldr	r3, [r6, #4]
   23c12:	eba1 010b 	sub.w	r1, r1, fp
   23c16:	681b      	ldr	r3, [r3, #0]
   23c18:	eba1 21c7 	sub.w	r1, r1, r7, lsl #11
   23c1c:	005b      	lsls	r3, r3, #1
   23c1e:	ea4f 2ac1 	mov.w	sl, r1, lsl #11
   23c22:	fbba faf2 	udiv	sl, sl, r2
   23c26:	d504      	bpl.n	23c32 <dram_init_clk_frequency_dss+0xc6>
   23c28:	4c33      	ldr	r4, [pc, #204]	; (23cf8 <dram_init_clk_frequency_dss+0x18c>)
   23c2a:	4653      	mov	r3, sl
   23c2c:	4836      	ldr	r0, [pc, #216]	; (23d08 <dram_init_clk_frequency_dss+0x19c>)
   23c2e:	69e4      	ldr	r4, [r4, #28]
   23c30:	47a0      	blx	r4
   23c32:	4b36      	ldr	r3, [pc, #216]	; (23d0c <dram_init_clk_frequency_dss+0x1a0>)
   23c34:	69da      	ldr	r2, [r3, #28]
   23c36:	f022 0202 	bic.w	r2, r2, #2
   23c3a:	61da      	str	r2, [r3, #28]
   23c3c:	6872      	ldr	r2, [r6, #4]
   23c3e:	6812      	ldr	r2, [r2, #0]
   23c40:	0052      	lsls	r2, r2, #1
   23c42:	d504      	bpl.n	23c4e <dram_init_clk_frequency_dss+0xe2>
   23c44:	69d9      	ldr	r1, [r3, #28]
   23c46:	4b2c      	ldr	r3, [pc, #176]	; (23cf8 <dram_init_clk_frequency_dss+0x18c>)
   23c48:	4831      	ldr	r0, [pc, #196]	; (23d10 <dram_init_clk_frequency_dss+0x1a4>)
   23c4a:	69db      	ldr	r3, [r3, #28]
   23c4c:	4798      	blx	r3
   23c4e:	4a31      	ldr	r2, [pc, #196]	; (23d14 <dram_init_clk_frequency_dss+0x1a8>)
   23c50:	f44a 0180 	orr.w	r1, sl, #4194304	; 0x400000
   23c54:	4830      	ldr	r0, [pc, #192]	; (23d18 <dram_init_clk_frequency_dss+0x1ac>)
   23c56:	f7ff f81f 	bl	22c98 <cpu_read_modify_write>
   23c5a:	6873      	ldr	r3, [r6, #4]
   23c5c:	681b      	ldr	r3, [r3, #0]
   23c5e:	005c      	lsls	r4, r3, #1
   23c60:	d505      	bpl.n	23c6e <dram_init_clk_frequency_dss+0x102>
   23c62:	4b2a      	ldr	r3, [pc, #168]	; (23d0c <dram_init_clk_frequency_dss+0x1a0>)
   23c64:	482d      	ldr	r0, [pc, #180]	; (23d1c <dram_init_clk_frequency_dss+0x1b0>)
   23c66:	6a19      	ldr	r1, [r3, #32]
   23c68:	4b23      	ldr	r3, [pc, #140]	; (23cf8 <dram_init_clk_frequency_dss+0x18c>)
   23c6a:	69db      	ldr	r3, [r3, #28]
   23c6c:	4798      	blx	r3
   23c6e:	482c      	ldr	r0, [pc, #176]	; (23d20 <dram_init_clk_frequency_dss+0x1b4>)
   23c70:	f06f 22f8 	mvn.w	r2, #4160813056	; 0xf800f800
   23c74:	ea48 0105 	orr.w	r1, r8, r5
   23c78:	f7ff f80e 	bl	22c98 <cpu_read_modify_write>
   23c7c:	6873      	ldr	r3, [r6, #4]
   23c7e:	681b      	ldr	r3, [r3, #0]
   23c80:	0058      	lsls	r0, r3, #1
   23c82:	d505      	bpl.n	23c90 <dram_init_clk_frequency_dss+0x124>
   23c84:	4b21      	ldr	r3, [pc, #132]	; (23d0c <dram_init_clk_frequency_dss+0x1a0>)
   23c86:	4827      	ldr	r0, [pc, #156]	; (23d24 <dram_init_clk_frequency_dss+0x1b8>)
   23c88:	6a59      	ldr	r1, [r3, #36]	; 0x24
   23c8a:	4b1b      	ldr	r3, [pc, #108]	; (23cf8 <dram_init_clk_frequency_dss+0x18c>)
   23c8c:	69db      	ldr	r3, [r3, #28]
   23c8e:	4798      	blx	r3
   23c90:	f64f 72ff 	movw	r2, #65535	; 0xffff
   23c94:	ea49 0107 	orr.w	r1, r9, r7
   23c98:	4823      	ldr	r0, [pc, #140]	; (23d28 <dram_init_clk_frequency_dss+0x1bc>)
   23c9a:	f7fe fffd 	bl	22c98 <cpu_read_modify_write>
   23c9e:	6873      	ldr	r3, [r6, #4]
   23ca0:	4c1a      	ldr	r4, [pc, #104]	; (23d0c <dram_init_clk_frequency_dss+0x1a0>)
   23ca2:	681b      	ldr	r3, [r3, #0]
   23ca4:	f013 4f80 	tst.w	r3, #1073741824	; 0x40000000
   23ca8:	d004      	beq.n	23cb4 <dram_init_clk_frequency_dss+0x148>
   23caa:	4b13      	ldr	r3, [pc, #76]	; (23cf8 <dram_init_clk_frequency_dss+0x18c>)
   23cac:	6aa1      	ldr	r1, [r4, #40]	; 0x28
   23cae:	481f      	ldr	r0, [pc, #124]	; (23d2c <dram_init_clk_frequency_dss+0x1c0>)
   23cb0:	69db      	ldr	r3, [r3, #28]
   23cb2:	4798      	blx	r3
   23cb4:	69e3      	ldr	r3, [r4, #28]
   23cb6:	f043 030a 	orr.w	r3, r3, #10
   23cba:	61e3      	str	r3, [r4, #28]
   23cbc:	6873      	ldr	r3, [r6, #4]
   23cbe:	681b      	ldr	r3, [r3, #0]
   23cc0:	0059      	lsls	r1, r3, #1
   23cc2:	d504      	bpl.n	23cce <dram_init_clk_frequency_dss+0x162>
   23cc4:	4b0c      	ldr	r3, [pc, #48]	; (23cf8 <dram_init_clk_frequency_dss+0x18c>)
   23cc6:	69e1      	ldr	r1, [r4, #28]
   23cc8:	4811      	ldr	r0, [pc, #68]	; (23d10 <dram_init_clk_frequency_dss+0x1a4>)
   23cca:	69db      	ldr	r3, [r3, #28]
   23ccc:	4798      	blx	r3
   23cce:	b003      	add	sp, #12
   23cd0:	e8bd 8ff0 	ldmia.w	sp!, {r4, r5, r6, r7, r8, r9, sl, fp, pc}
   23cd4:	ea48 0104 	orr.w	r1, r8, r4
   23cd8:	f06f 22f8 	mvn.w	r2, #4160813056	; 0xf800f800
   23cdc:	4810      	ldr	r0, [pc, #64]	; (23d20 <dram_init_clk_frequency_dss+0x1b4>)
   23cde:	f7fe ffdb 	bl	22c98 <cpu_read_modify_write>
   23ce2:	f64f 72ff 	movw	r2, #65535	; 0xffff
   23ce6:	ea49 010a 	orr.w	r1, r9, sl
   23cea:	480f      	ldr	r0, [pc, #60]	; (23d28 <dram_init_clk_frequency_dss+0x1bc>)
   23cec:	f7fe ffd4 	bl	22c98 <cpu_read_modify_write>
   23cf0:	e7ed      	b.n	23cce <dram_init_clk_frequency_dss+0x162>
   23cf2:	bf00      	nop
   23cf4:	10000e10 	.word	0x10000e10
   23cf8:	100bc800 	.word	0x100bc800
   23cfc:	201016f1 	.word	0x201016f1
   23d00:	2010171b 	.word	0x2010171b
   23d04:	20101733 	.word	0x20101733
   23d08:	20101759 	.word	0x20101759
   23d0c:	40608000 	.word	0x40608000
   23d10:	2010179a 	.word	0x2010179a
   23d14:	0077ffff 	.word	0x0077ffff
   23d18:	40608020 	.word	0x40608020
   23d1c:	201017c3 	.word	0x201017c3
   23d20:	40608024 	.word	0x40608024
   23d24:	201017ec 	.word	0x201017ec
   23d28:	40608028 	.word	0x40608028
   23d2c:	20101815 	.word	0x20101815

00023d30 <g_crypto_handler>:
   23d30:	2800      	cmp	r0, #0
   23d32:	bfc2      	ittt	gt
   23d34:	4b03      	ldrgt	r3, [pc, #12]	; (23d44 <g_crypto_handler+0x14>)
   23d36:	2201      	movgt	r2, #1
   23d38:	601a      	strgt	r2, [r3, #0]
   23d3a:	b111      	cbz	r1, 23d42 <g_crypto_handler+0x12>
   23d3c:	4b02      	ldr	r3, [pc, #8]	; (23d48 <g_crypto_handler+0x18>)
   23d3e:	2201      	movs	r2, #1
   23d40:	601a      	str	r2, [r3, #0]
   23d42:	4770      	bx	lr
   23d44:	00018d24 	.word	0x00018d24
   23d48:	00018d20 	.word	0x00018d20

00023d4c <g_crypto_pre_exec>:
   23d4c:	2000      	movs	r0, #0
   23d4e:	4b01      	ldr	r3, [pc, #4]	; (23d54 <g_crypto_pre_exec+0x8>)
   23d50:	6018      	str	r0, [r3, #0]
   23d52:	4770      	bx	lr
   23d54:	00018d24 	.word	0x00018d24

00023d58 <crypto_handler>:
   23d58:	4b14      	ldr	r3, [pc, #80]	; (23dac <crypto_handler+0x54>)
   23d5a:	b513      	push	{r0, r1, r4, lr}
   23d5c:	681c      	ldr	r4, [r3, #0]
   23d5e:	4b14      	ldr	r3, [pc, #80]	; (23db0 <crypto_handler+0x58>)
   23d60:	691a      	ldr	r2, [r3, #16]
   23d62:	f3c2 2207 	ubfx	r2, r2, #8, #8
   23d66:	9200      	str	r2, [sp, #0]
   23d68:	9a00      	ldr	r2, [sp, #0]
   23d6a:	b14a      	cbz	r2, 23d80 <crypto_handler+0x28>
   23d6c:	9a00      	ldr	r2, [sp, #0]
   23d6e:	6919      	ldr	r1, [r3, #16]
   23d70:	b2d2      	uxtb	r2, r2
   23d72:	f362 4117 	bfi	r1, r2, #16, #8
   23d76:	6119      	str	r1, [r3, #16]
   23d78:	691a      	ldr	r2, [r3, #16]
   23d7a:	f042 0210 	orr.w	r2, r2, #16
   23d7e:	611a      	str	r2, [r3, #16]
   23d80:	4b0b      	ldr	r3, [pc, #44]	; (23db0 <crypto_handler+0x58>)
   23d82:	f8d3 2118 	ldr.w	r2, [r3, #280]	; 0x118
   23d86:	f3c2 0240 	ubfx	r2, r2, #1, #1
   23d8a:	9201      	str	r2, [sp, #4]
   23d8c:	9901      	ldr	r1, [sp, #4]
   23d8e:	b131      	cbz	r1, 23d9e <crypto_handler+0x46>
   23d90:	f8d3 2118 	ldr.w	r2, [r3, #280]	; 0x118
   23d94:	2101      	movs	r1, #1
   23d96:	f042 0202 	orr.w	r2, r2, #2
   23d9a:	f8c3 2118 	str.w	r2, [r3, #280]	; 0x118
   23d9e:	9800      	ldr	r0, [sp, #0]
   23da0:	47a0      	blx	r4
   23da2:	f3bf 8f4f 	dsb	sy
   23da6:	b002      	add	sp, #8
   23da8:	bd10      	pop	{r4, pc}
   23daa:	bf00      	nop
   23dac:	00018d28 	.word	0x00018d28
   23db0:	50070000 	.word	0x50070000

00023db4 <g_crypto_wait_done>:
   23db4:	b537      	push	{r0, r1, r2, r4, r5, lr}
   23db6:	7940      	ldrb	r0, [r0, #5]
   23db8:	b9f0      	cbnz	r0, 23df8 <g_crypto_wait_done+0x44>
   23dba:	b003      	add	sp, #12
   23dbc:	bd30      	pop	{r4, r5, pc}
   23dbe:	3b01      	subs	r3, #1
   23dc0:	d11c      	bne.n	23dfc <g_crypto_wait_done+0x48>
   23dc2:	4b11      	ldr	r3, [pc, #68]	; (23e08 <g_crypto_wait_done+0x54>)
   23dc4:	4d11      	ldr	r5, [pc, #68]	; (23e0c <g_crypto_wait_done+0x58>)
   23dc6:	691a      	ldr	r2, [r3, #16]
   23dc8:	9201      	str	r2, [sp, #4]
   23dca:	8b9b      	ldrh	r3, [r3, #28]
   23dcc:	b29b      	uxth	r3, r3
   23dce:	9300      	str	r3, [sp, #0]
   23dd0:	682b      	ldr	r3, [r5, #0]
   23dd2:	681b      	ldr	r3, [r3, #0]
   23dd4:	05da      	lsls	r2, r3, #23
   23dd6:	d402      	bmi.n	23dde <g_crypto_wait_done+0x2a>
   23dd8:	f04f 30ff 	mov.w	r0, #4294967295	; 0xffffffff
   23ddc:	e7ed      	b.n	23dba <g_crypto_wait_done+0x6>
   23dde:	4b0c      	ldr	r3, [pc, #48]	; (23e10 <g_crypto_wait_done+0x5c>)
   23de0:	480c      	ldr	r0, [pc, #48]	; (23e14 <g_crypto_wait_done+0x60>)
   23de2:	69dc      	ldr	r4, [r3, #28]
   23de4:	47a0      	blx	r4
   23de6:	682b      	ldr	r3, [r5, #0]
   23de8:	681b      	ldr	r3, [r3, #0]
   23dea:	05db      	lsls	r3, r3, #23
   23dec:	d5f4      	bpl.n	23dd8 <g_crypto_wait_done+0x24>
   23dee:	9901      	ldr	r1, [sp, #4]
   23df0:	4809      	ldr	r0, [pc, #36]	; (23e18 <g_crypto_wait_done+0x64>)
   23df2:	9a00      	ldr	r2, [sp, #0]
   23df4:	47a0      	blx	r4
   23df6:	e7ef      	b.n	23dd8 <g_crypto_wait_done+0x24>
   23df8:	4b08      	ldr	r3, [pc, #32]	; (23e1c <g_crypto_wait_done+0x68>)
   23dfa:	4909      	ldr	r1, [pc, #36]	; (23e20 <g_crypto_wait_done+0x6c>)
   23dfc:	680a      	ldr	r2, [r1, #0]
   23dfe:	2a00      	cmp	r2, #0
   23e00:	d0dd      	beq.n	23dbe <g_crypto_wait_done+0xa>
   23e02:	2000      	movs	r0, #0
   23e04:	e7d9      	b.n	23dba <g_crypto_wait_done+0x6>
   23e06:	bf00      	nop
   23e08:	50070000 	.word	0x50070000
   23e0c:	10000e10 	.word	0x10000e10
   23e10:	100bc800 	.word	0x100bc800
   23e14:	2010183e 	.word	0x2010183e
   23e18:	2010186c 	.word	0x2010186c
   23e1c:	00989680 	.word	0x00989680
   23e20:	00018d24 	.word	0x00018d24

00023e24 <hal_crypto_engine_init_platform>:
   23e24:	b538      	push	{r3, r4, r5, lr}
   23e26:	79c3      	ldrb	r3, [r0, #7]
   23e28:	4604      	mov	r4, r0
   23e2a:	460d      	mov	r5, r1
   23e2c:	075b      	lsls	r3, r3, #29
   23e2e:	d407      	bmi.n	23e40 <hal_crypto_engine_init_platform+0x1c>
   23e30:	4b0a      	ldr	r3, [pc, #40]	; (23e5c <hal_crypto_engine_init_platform+0x38>)
   23e32:	781b      	ldrb	r3, [r3, #0]
   23e34:	2b01      	cmp	r3, #1
   23e36:	b2d8      	uxtb	r0, r3
   23e38:	d108      	bne.n	23e4c <hal_crypto_engine_init_platform+0x28>
   23e3a:	b2c9      	uxtb	r1, r1
   23e3c:	f008 fe52 	bl	2cae4 <hal_sys_lxbus_shared_en>
   23e40:	79e3      	ldrb	r3, [r4, #7]
   23e42:	b145      	cbz	r5, 23e56 <hal_crypto_engine_init_platform+0x32>
   23e44:	f043 0302 	orr.w	r3, r3, #2
   23e48:	71e3      	strb	r3, [r4, #7]
   23e4a:	bd38      	pop	{r3, r4, r5, pc}
   23e4c:	4b04      	ldr	r3, [pc, #16]	; (23e60 <hal_crypto_engine_init_platform+0x3c>)
   23e4e:	4608      	mov	r0, r1
   23e50:	689b      	ldr	r3, [r3, #8]
   23e52:	4798      	blx	r3
   23e54:	e7f4      	b.n	23e40 <hal_crypto_engine_init_platform+0x1c>
   23e56:	f003 03fd 	and.w	r3, r3, #253	; 0xfd
   23e5a:	e7f5      	b.n	23e48 <hal_crypto_engine_init_platform+0x24>
   23e5c:	00018d2c 	.word	0x00018d2c
   23e60:	10000130 	.word	0x10000130

00023e64 <hal_crypto_engine_chk_init>:
   23e64:	4b02      	ldr	r3, [pc, #8]	; (23e70 <hal_crypto_engine_chk_init+0xc>)
   23e66:	7918      	ldrb	r0, [r3, #4]
   23e68:	1e43      	subs	r3, r0, #1
   23e6a:	4258      	negs	r0, r3
   23e6c:	4158      	adcs	r0, r3
   23e6e:	4770      	bx	lr
   23e70:	20105200 	.word	0x20105200

00023e74 <hal_crypto_engine_key_stg_deinit>:
   23e74:	b508      	push	{r3, lr}
   23e76:	2100      	movs	r1, #0
   23e78:	2017      	movs	r0, #23
   23e7a:	f008 fde7 	bl	2ca4c <hal_sys_peripheral_en>
   23e7e:	4b02      	ldr	r3, [pc, #8]	; (23e88 <hal_crypto_engine_key_stg_deinit+0x14>)
   23e80:	2200      	movs	r2, #0
   23e82:	701a      	strb	r2, [r3, #0]
   23e84:	bd08      	pop	{r3, pc}
   23e86:	bf00      	nop
   23e88:	00018d2c 	.word	0x00018d2c

00023e8c <hal_crypto_irq_enable>:
   23e8c:	b538      	push	{r3, r4, r5, lr}
   23e8e:	4c0f      	ldr	r4, [pc, #60]	; (23ecc <hal_crypto_irq_enable+0x40>)
   23e90:	4605      	mov	r5, r0
   23e92:	4b0f      	ldr	r3, [pc, #60]	; (23ed0 <hal_crypto_irq_enable+0x44>)
   23e94:	202c      	movs	r0, #44	; 0x2c
   23e96:	6019      	str	r1, [r3, #0]
   23e98:	490e      	ldr	r1, [pc, #56]	; (23ed4 <hal_crypto_irq_enable+0x48>)
   23e9a:	6a23      	ldr	r3, [r4, #32]
   23e9c:	4798      	blx	r3
   23e9e:	6ba3      	ldr	r3, [r4, #56]	; 0x38
   23ea0:	202c      	movs	r0, #44	; 0x2c
   23ea2:	4798      	blx	r3
   23ea4:	6aa3      	ldr	r3, [r4, #40]	; 0x28
   23ea6:	2109      	movs	r1, #9
   23ea8:	202c      	movs	r0, #44	; 0x2c
   23eaa:	4798      	blx	r3
   23eac:	4b0a      	ldr	r3, [pc, #40]	; (23ed8 <hal_crypto_irq_enable+0x4c>)
   23eae:	202c      	movs	r0, #44	; 0x2c
   23eb0:	691a      	ldr	r2, [r3, #16]
   23eb2:	f042 0280 	orr.w	r2, r2, #128	; 0x80
   23eb6:	611a      	str	r2, [r3, #16]
   23eb8:	695a      	ldr	r2, [r3, #20]
   23eba:	f36f 0200 	bfc	r2, #0, #1
   23ebe:	615a      	str	r2, [r3, #20]
   23ec0:	69a3      	ldr	r3, [r4, #24]
   23ec2:	4798      	blx	r3
   23ec4:	2301      	movs	r3, #1
   23ec6:	716b      	strb	r3, [r5, #5]
   23ec8:	bd38      	pop	{r3, r4, r5, pc}
   23eca:	bf00      	nop
   23ecc:	100000e0 	.word	0x100000e0
   23ed0:	00018d28 	.word	0x00018d28
   23ed4:	00023d59 	.word	0x00023d59
   23ed8:	50070000 	.word	0x50070000

00023edc <hal_crypto_engine_init>:
   23edc:	b538      	push	{r3, r4, r5, lr}
   23ede:	4c19      	ldr	r4, [pc, #100]	; (23f44 <hal_crypto_engine_init+0x68>)
   23ee0:	7923      	ldrb	r3, [r4, #4]
   23ee2:	b163      	cbz	r3, 23efe <hal_crypto_engine_init+0x22>
   23ee4:	4b18      	ldr	r3, [pc, #96]	; (23f48 <hal_crypto_engine_init+0x6c>)
   23ee6:	685b      	ldr	r3, [r3, #4]
   23ee8:	681d      	ldr	r5, [r3, #0]
   23eea:	f415 7580 	ands.w	r5, r5, #256	; 0x100
   23eee:	d004      	beq.n	23efa <hal_crypto_engine_init+0x1e>
   23ef0:	4b16      	ldr	r3, [pc, #88]	; (23f4c <hal_crypto_engine_init+0x70>)
   23ef2:	2500      	movs	r5, #0
   23ef4:	4816      	ldr	r0, [pc, #88]	; (23f50 <hal_crypto_engine_init+0x74>)
   23ef6:	69db      	ldr	r3, [r3, #28]
   23ef8:	4798      	blx	r3
   23efa:	4628      	mov	r0, r5
   23efc:	bd38      	pop	{r3, r4, r5, pc}
   23efe:	71a3      	strb	r3, [r4, #6]
   23f00:	2101      	movs	r1, #1
   23f02:	4b14      	ldr	r3, [pc, #80]	; (23f54 <hal_crypto_engine_init+0x78>)
   23f04:	4620      	mov	r0, r4
   23f06:	f8c4 354c 	str.w	r3, [r4, #1356]	; 0x54c
   23f0a:	4b13      	ldr	r3, [pc, #76]	; (23f58 <hal_crypto_engine_init+0x7c>)
   23f0c:	f8c4 3550 	str.w	r3, [r4, #1360]	; 0x550
   23f10:	f7ff ff88 	bl	23e24 <hal_crypto_engine_init_platform>
   23f14:	79e3      	ldrb	r3, [r4, #7]
   23f16:	4620      	mov	r0, r4
   23f18:	f043 0301 	orr.w	r3, r3, #1
   23f1c:	71e3      	strb	r3, [r4, #7]
   23f1e:	4b0f      	ldr	r3, [pc, #60]	; (23f5c <hal_crypto_engine_init+0x80>)
   23f20:	681b      	ldr	r3, [r3, #0]
   23f22:	4798      	blx	r3
   23f24:	4605      	mov	r5, r0
   23f26:	2800      	cmp	r0, #0
   23f28:	d1e7      	bne.n	23efa <hal_crypto_engine_init+0x1e>
   23f2a:	4b0d      	ldr	r3, [pc, #52]	; (23f60 <hal_crypto_engine_init+0x84>)
   23f2c:	4620      	mov	r0, r4
   23f2e:	490d      	ldr	r1, [pc, #52]	; (23f64 <hal_crypto_engine_init+0x88>)
   23f30:	6a5a      	ldr	r2, [r3, #36]	; 0x24
   23f32:	6a1b      	ldr	r3, [r3, #32]
   23f34:	f8c4 2540 	str.w	r2, [r4, #1344]	; 0x540
   23f38:	f8c4 3544 	str.w	r3, [r4, #1348]	; 0x544
   23f3c:	f7ff ffa6 	bl	23e8c <hal_crypto_irq_enable>
   23f40:	e7db      	b.n	23efa <hal_crypto_engine_init+0x1e>
   23f42:	bf00      	nop
   23f44:	20105200 	.word	0x20105200
   23f48:	10000e10 	.word	0x10000e10
   23f4c:	100bc800 	.word	0x100bc800
   23f50:	201018ac 	.word	0x201018ac
   23f54:	00023d4d 	.word	0x00023d4d
   23f58:	00023db5 	.word	0x00023db5
   23f5c:	10000130 	.word	0x10000130
   23f60:	10000a60 	.word	0x10000a60
   23f64:	00023d31 	.word	0x00023d31

00023f68 <hal_crypto_irq_disable>:
   23f68:	b538      	push	{r3, r4, r5, lr}
   23f6a:	7943      	ldrb	r3, [r0, #5]
   23f6c:	4604      	mov	r4, r0
   23f6e:	b173      	cbz	r3, 23f8e <hal_crypto_irq_disable+0x26>
   23f70:	4a07      	ldr	r2, [pc, #28]	; (23f90 <hal_crypto_irq_disable+0x28>)
   23f72:	202c      	movs	r0, #44	; 0x2c
   23f74:	4d07      	ldr	r5, [pc, #28]	; (23f94 <hal_crypto_irq_disable+0x2c>)
   23f76:	6953      	ldr	r3, [r2, #20]
   23f78:	f043 0301 	orr.w	r3, r3, #1
   23f7c:	6153      	str	r3, [r2, #20]
   23f7e:	69eb      	ldr	r3, [r5, #28]
   23f80:	4798      	blx	r3
   23f82:	6a2b      	ldr	r3, [r5, #32]
   23f84:	2100      	movs	r1, #0
   23f86:	202c      	movs	r0, #44	; 0x2c
   23f88:	4798      	blx	r3
   23f8a:	2300      	movs	r3, #0
   23f8c:	7163      	strb	r3, [r4, #5]
   23f8e:	bd38      	pop	{r3, r4, r5, pc}
   23f90:	50070000 	.word	0x50070000
   23f94:	100000e0 	.word	0x100000e0

00023f98 <hal_crypto_engine_deinit>:
   23f98:	b570      	push	{r4, r5, r6, lr}
   23f9a:	4d16      	ldr	r5, [pc, #88]	; (23ff4 <hal_crypto_engine_deinit+0x5c>)
   23f9c:	792e      	ldrb	r6, [r5, #4]
   23f9e:	b966      	cbnz	r6, 23fba <hal_crypto_engine_deinit+0x22>
   23fa0:	4b15      	ldr	r3, [pc, #84]	; (23ff8 <hal_crypto_engine_deinit+0x60>)
   23fa2:	685b      	ldr	r3, [r3, #4]
   23fa4:	681c      	ldr	r4, [r3, #0]
   23fa6:	f414 7480 	ands.w	r4, r4, #256	; 0x100
   23faa:	d004      	beq.n	23fb6 <hal_crypto_engine_deinit+0x1e>
   23fac:	4b13      	ldr	r3, [pc, #76]	; (23ffc <hal_crypto_engine_deinit+0x64>)
   23fae:	4634      	mov	r4, r6
   23fb0:	4813      	ldr	r0, [pc, #76]	; (24000 <hal_crypto_engine_deinit+0x68>)
   23fb2:	69db      	ldr	r3, [r3, #28]
   23fb4:	4798      	blx	r3
   23fb6:	4620      	mov	r0, r4
   23fb8:	bd70      	pop	{r4, r5, r6, pc}
   23fba:	2300      	movs	r3, #0
   23fbc:	4628      	mov	r0, r5
   23fbe:	f8c5 354c 	str.w	r3, [r5, #1356]	; 0x54c
   23fc2:	f8c5 3550 	str.w	r3, [r5, #1360]	; 0x550
   23fc6:	f8c5 3540 	str.w	r3, [r5, #1344]	; 0x540
   23fca:	f8c5 3544 	str.w	r3, [r5, #1348]	; 0x544
   23fce:	f7ff ffcb 	bl	23f68 <hal_crypto_irq_disable>
   23fd2:	4b0c      	ldr	r3, [pc, #48]	; (24004 <hal_crypto_engine_deinit+0x6c>)
   23fd4:	4628      	mov	r0, r5
   23fd6:	685b      	ldr	r3, [r3, #4]
   23fd8:	4798      	blx	r3
   23fda:	4604      	mov	r4, r0
   23fdc:	2800      	cmp	r0, #0
   23fde:	d1ea      	bne.n	23fb6 <hal_crypto_engine_deinit+0x1e>
   23fe0:	4601      	mov	r1, r0
   23fe2:	4628      	mov	r0, r5
   23fe4:	f7ff ff1e 	bl	23e24 <hal_crypto_engine_init_platform>
   23fe8:	79eb      	ldrb	r3, [r5, #7]
   23fea:	f023 0301 	bic.w	r3, r3, #1
   23fee:	71eb      	strb	r3, [r5, #7]
   23ff0:	e7e1      	b.n	23fb6 <hal_crypto_engine_deinit+0x1e>
   23ff2:	bf00      	nop
   23ff4:	20105200 	.word	0x20105200
   23ff8:	10000e10 	.word	0x10000e10
   23ffc:	100bc800 	.word	0x100bc800
   24000:	201018d8 	.word	0x201018d8
   24004:	10000130 	.word	0x10000130

00024008 <hal_crypto_sha1_init>:
   24008:	4807      	ldr	r0, [pc, #28]	; (24028 <hal_crypto_sha1_init+0x20>)
   2400a:	b510      	push	{r4, lr}
   2400c:	7903      	ldrb	r3, [r0, #4]
   2400e:	2b01      	cmp	r3, #1
   24010:	d106      	bne.n	24020 <hal_crypto_sha1_init+0x18>
   24012:	4b06      	ldr	r3, [pc, #24]	; (2402c <hal_crypto_sha1_init+0x24>)
   24014:	691c      	ldr	r4, [r3, #16]
   24016:	2300      	movs	r3, #0
   24018:	461a      	mov	r2, r3
   2401a:	4619      	mov	r1, r3
   2401c:	47a0      	blx	r4
   2401e:	bd10      	pop	{r4, pc}
   24020:	f06f 0004 	mvn.w	r0, #4
   24024:	e7fb      	b.n	2401e <hal_crypto_sha1_init+0x16>
   24026:	bf00      	nop
   24028:	20105200 	.word	0x20105200
   2402c:	10000130 	.word	0x10000130

00024030 <hal_crypto_sha1_update>:
   24030:	4602      	mov	r2, r0
   24032:	480c      	ldr	r0, [pc, #48]	; (24064 <hal_crypto_sha1_update+0x34>)
   24034:	b510      	push	{r4, lr}
   24036:	7903      	ldrb	r3, [r0, #4]
   24038:	2b01      	cmp	r3, #1
   2403a:	d10a      	bne.n	24052 <hal_crypto_sha1_update+0x22>
   2403c:	b162      	cbz	r2, 24058 <hal_crypto_sha1_update+0x28>
   2403e:	1e4b      	subs	r3, r1, #1
   24040:	f5b3 3f80 	cmp.w	r3, #65536	; 0x10000
   24044:	d20b      	bcs.n	2405e <hal_crypto_sha1_update+0x2e>
   24046:	4b08      	ldr	r3, [pc, #32]	; (24068 <hal_crypto_sha1_update+0x38>)
   24048:	699c      	ldr	r4, [r3, #24]
   2404a:	460b      	mov	r3, r1
   2404c:	2100      	movs	r1, #0
   2404e:	47a0      	blx	r4
   24050:	bd10      	pop	{r4, pc}
   24052:	f06f 0004 	mvn.w	r0, #4
   24056:	e7fb      	b.n	24050 <hal_crypto_sha1_update+0x20>
   24058:	f06f 0003 	mvn.w	r0, #3
   2405c:	e7f8      	b.n	24050 <hal_crypto_sha1_update+0x20>
   2405e:	f06f 0007 	mvn.w	r0, #7
   24062:	e7f5      	b.n	24050 <hal_crypto_sha1_update+0x20>
   24064:	20105200 	.word	0x20105200
   24068:	10000130 	.word	0x10000130

0002406c <hal_crypto_sha1_final>:
   2406c:	4602      	mov	r2, r0
   2406e:	4808      	ldr	r0, [pc, #32]	; (24090 <hal_crypto_sha1_final+0x24>)
   24070:	b508      	push	{r3, lr}
   24072:	7903      	ldrb	r3, [r0, #4]
   24074:	2b01      	cmp	r3, #1
   24076:	d105      	bne.n	24084 <hal_crypto_sha1_final+0x18>
   24078:	b13a      	cbz	r2, 2408a <hal_crypto_sha1_final+0x1e>
   2407a:	4b06      	ldr	r3, [pc, #24]	; (24094 <hal_crypto_sha1_final+0x28>)
   2407c:	2100      	movs	r1, #0
   2407e:	69db      	ldr	r3, [r3, #28]
   24080:	4798      	blx	r3
   24082:	bd08      	pop	{r3, pc}
   24084:	f06f 0004 	mvn.w	r0, #4
   24088:	e7fb      	b.n	24082 <hal_crypto_sha1_final+0x16>
   2408a:	f06f 0003 	mvn.w	r0, #3
   2408e:	e7f8      	b.n	24082 <hal_crypto_sha1_final+0x16>
   24090:	20105200 	.word	0x20105200
   24094:	10000130 	.word	0x10000130

00024098 <hal_crypto_sha2_256_init>:
   24098:	4807      	ldr	r0, [pc, #28]	; (240b8 <hal_crypto_sha2_256_init+0x20>)
   2409a:	b510      	push	{r4, lr}
   2409c:	7903      	ldrb	r3, [r0, #4]
   2409e:	2b01      	cmp	r3, #1
   240a0:	d106      	bne.n	240b0 <hal_crypto_sha2_256_init+0x18>
   240a2:	4b06      	ldr	r3, [pc, #24]	; (240bc <hal_crypto_sha2_256_init+0x24>)
   240a4:	2121      	movs	r1, #33	; 0x21
   240a6:	691c      	ldr	r4, [r3, #16]
   240a8:	2300      	movs	r3, #0
   240aa:	461a      	mov	r2, r3
   240ac:	47a0      	blx	r4
   240ae:	bd10      	pop	{r4, pc}
   240b0:	f06f 0004 	mvn.w	r0, #4
   240b4:	e7fb      	b.n	240ae <hal_crypto_sha2_256_init+0x16>
   240b6:	bf00      	nop
   240b8:	20105200 	.word	0x20105200
   240bc:	10000130 	.word	0x10000130

000240c0 <hal_crypto_sha2_256_update>:
   240c0:	4602      	mov	r2, r0
   240c2:	480c      	ldr	r0, [pc, #48]	; (240f4 <hal_crypto_sha2_256_update+0x34>)
   240c4:	b510      	push	{r4, lr}
   240c6:	7903      	ldrb	r3, [r0, #4]
   240c8:	2b01      	cmp	r3, #1
   240ca:	d10a      	bne.n	240e2 <hal_crypto_sha2_256_update+0x22>
   240cc:	b162      	cbz	r2, 240e8 <hal_crypto_sha2_256_update+0x28>
   240ce:	1e4b      	subs	r3, r1, #1
   240d0:	f5b3 3f80 	cmp.w	r3, #65536	; 0x10000
   240d4:	d20b      	bcs.n	240ee <hal_crypto_sha2_256_update+0x2e>
   240d6:	4b08      	ldr	r3, [pc, #32]	; (240f8 <hal_crypto_sha2_256_update+0x38>)
   240d8:	699c      	ldr	r4, [r3, #24]
   240da:	460b      	mov	r3, r1
   240dc:	2121      	movs	r1, #33	; 0x21
   240de:	47a0      	blx	r4
   240e0:	bd10      	pop	{r4, pc}
   240e2:	f06f 0004 	mvn.w	r0, #4
   240e6:	e7fb      	b.n	240e0 <hal_crypto_sha2_256_update+0x20>
   240e8:	f06f 0003 	mvn.w	r0, #3
   240ec:	e7f8      	b.n	240e0 <hal_crypto_sha2_256_update+0x20>
   240ee:	f06f 0007 	mvn.w	r0, #7
   240f2:	e7f5      	b.n	240e0 <hal_crypto_sha2_256_update+0x20>
   240f4:	20105200 	.word	0x20105200
   240f8:	10000130 	.word	0x10000130

000240fc <hal_crypto_sha2_256_final>:
   240fc:	4602      	mov	r2, r0
   240fe:	4808      	ldr	r0, [pc, #32]	; (24120 <hal_crypto_sha2_256_final+0x24>)
   24100:	b508      	push	{r3, lr}
   24102:	7903      	ldrb	r3, [r0, #4]
   24104:	2b01      	cmp	r3, #1
   24106:	d105      	bne.n	24114 <hal_crypto_sha2_256_final+0x18>
   24108:	b13a      	cbz	r2, 2411a <hal_crypto_sha2_256_final+0x1e>
   2410a:	4b06      	ldr	r3, [pc, #24]	; (24124 <hal_crypto_sha2_256_final+0x28>)
   2410c:	2121      	movs	r1, #33	; 0x21
   2410e:	69db      	ldr	r3, [r3, #28]
   24110:	4798      	blx	r3
   24112:	bd08      	pop	{r3, pc}
   24114:	f06f 0004 	mvn.w	r0, #4
   24118:	e7fb      	b.n	24112 <hal_crypto_sha2_256_final+0x16>
   2411a:	f06f 0003 	mvn.w	r0, #3
   2411e:	e7f8      	b.n	24112 <hal_crypto_sha2_256_final+0x16>
   24120:	20105200 	.word	0x20105200
   24124:	10000130 	.word	0x10000130

00024128 <hal_crypto_sha2_512_init>:
   24128:	4807      	ldr	r0, [pc, #28]	; (24148 <hal_crypto_sha2_512_init+0x20>)
   2412a:	b510      	push	{r4, lr}
   2412c:	7903      	ldrb	r3, [r0, #4]
   2412e:	2b01      	cmp	r3, #1
   24130:	d106      	bne.n	24140 <hal_crypto_sha2_512_init+0x18>
   24132:	4b06      	ldr	r3, [pc, #24]	; (2414c <hal_crypto_sha2_512_init+0x24>)
   24134:	2141      	movs	r1, #65	; 0x41
   24136:	691c      	ldr	r4, [r3, #16]
   24138:	2300      	movs	r3, #0
   2413a:	461a      	mov	r2, r3
   2413c:	47a0      	blx	r4
   2413e:	bd10      	pop	{r4, pc}
   24140:	f06f 0004 	mvn.w	r0, #4
   24144:	e7fb      	b.n	2413e <hal_crypto_sha2_512_init+0x16>
   24146:	bf00      	nop
   24148:	20105200 	.word	0x20105200
   2414c:	10000130 	.word	0x10000130

00024150 <hal_crypto_sha2_512_update>:
   24150:	4602      	mov	r2, r0
   24152:	480c      	ldr	r0, [pc, #48]	; (24184 <hal_crypto_sha2_512_update+0x34>)
   24154:	b510      	push	{r4, lr}
   24156:	7903      	ldrb	r3, [r0, #4]
   24158:	2b01      	cmp	r3, #1
   2415a:	d10a      	bne.n	24172 <hal_crypto_sha2_512_update+0x22>
   2415c:	b162      	cbz	r2, 24178 <hal_crypto_sha2_512_update+0x28>
   2415e:	1e4b      	subs	r3, r1, #1
   24160:	f5b3 3f80 	cmp.w	r3, #65536	; 0x10000
   24164:	d20b      	bcs.n	2417e <hal_crypto_sha2_512_update+0x2e>
   24166:	4b08      	ldr	r3, [pc, #32]	; (24188 <hal_crypto_sha2_512_update+0x38>)
   24168:	699c      	ldr	r4, [r3, #24]
   2416a:	460b      	mov	r3, r1
   2416c:	2141      	movs	r1, #65	; 0x41
   2416e:	47a0      	blx	r4
   24170:	bd10      	pop	{r4, pc}
   24172:	f06f 0004 	mvn.w	r0, #4
   24176:	e7fb      	b.n	24170 <hal_crypto_sha2_512_update+0x20>
   24178:	f06f 0003 	mvn.w	r0, #3
   2417c:	e7f8      	b.n	24170 <hal_crypto_sha2_512_update+0x20>
   2417e:	f06f 0007 	mvn.w	r0, #7
   24182:	e7f5      	b.n	24170 <hal_crypto_sha2_512_update+0x20>
   24184:	20105200 	.word	0x20105200
   24188:	10000130 	.word	0x10000130

0002418c <hal_crypto_sha2_512_final>:
   2418c:	4602      	mov	r2, r0
   2418e:	4808      	ldr	r0, [pc, #32]	; (241b0 <hal_crypto_sha2_512_final+0x24>)
   24190:	b508      	push	{r3, lr}
   24192:	7903      	ldrb	r3, [r0, #4]
   24194:	2b01      	cmp	r3, #1
   24196:	d105      	bne.n	241a4 <hal_crypto_sha2_512_final+0x18>
   24198:	b13a      	cbz	r2, 241aa <hal_crypto_sha2_512_final+0x1e>
   2419a:	4b06      	ldr	r3, [pc, #24]	; (241b4 <hal_crypto_sha2_512_final+0x28>)
   2419c:	2141      	movs	r1, #65	; 0x41
   2419e:	69db      	ldr	r3, [r3, #28]
   241a0:	4798      	blx	r3
   241a2:	bd08      	pop	{r3, pc}
   241a4:	f06f 0004 	mvn.w	r0, #4
   241a8:	e7fb      	b.n	241a2 <hal_crypto_sha2_512_final+0x16>
   241aa:	f06f 0003 	mvn.w	r0, #3
   241ae:	e7f8      	b.n	241a2 <hal_crypto_sha2_512_final+0x16>
   241b0:	20105200 	.word	0x20105200
   241b4:	10000130 	.word	0x10000130

000241b8 <hal_crypto_hmac_sha2_256_init>:
   241b8:	4602      	mov	r2, r0
   241ba:	480e      	ldr	r0, [pc, #56]	; (241f4 <hal_crypto_hmac_sha2_256_init+0x3c>)
   241bc:	b510      	push	{r4, lr}
   241be:	7903      	ldrb	r3, [r0, #4]
   241c0:	2b01      	cmp	r3, #1
   241c2:	d10b      	bne.n	241dc <hal_crypto_hmac_sha2_256_init+0x24>
   241c4:	b16a      	cbz	r2, 241e2 <hal_crypto_hmac_sha2_256_init+0x2a>
   241c6:	06d3      	lsls	r3, r2, #27
   241c8:	d10e      	bne.n	241e8 <hal_crypto_hmac_sha2_256_init+0x30>
   241ca:	1e4b      	subs	r3, r1, #1
   241cc:	2b3f      	cmp	r3, #63	; 0x3f
   241ce:	d80e      	bhi.n	241ee <hal_crypto_hmac_sha2_256_init+0x36>
   241d0:	4b09      	ldr	r3, [pc, #36]	; (241f8 <hal_crypto_hmac_sha2_256_init+0x40>)
   241d2:	691c      	ldr	r4, [r3, #16]
   241d4:	460b      	mov	r3, r1
   241d6:	2125      	movs	r1, #37	; 0x25
   241d8:	47a0      	blx	r4
   241da:	bd10      	pop	{r4, pc}
   241dc:	f06f 0004 	mvn.w	r0, #4
   241e0:	e7fb      	b.n	241da <hal_crypto_hmac_sha2_256_init+0x22>
   241e2:	f06f 0003 	mvn.w	r0, #3
   241e6:	e7f8      	b.n	241da <hal_crypto_hmac_sha2_256_init+0x22>
   241e8:	f06f 0005 	mvn.w	r0, #5
   241ec:	e7f5      	b.n	241da <hal_crypto_hmac_sha2_256_init+0x22>
   241ee:	f06f 0006 	mvn.w	r0, #6
   241f2:	e7f2      	b.n	241da <hal_crypto_hmac_sha2_256_init+0x22>
   241f4:	20105200 	.word	0x20105200
   241f8:	10000130 	.word	0x10000130

000241fc <hal_crypto_hmac_sha2_256_update>:
   241fc:	4602      	mov	r2, r0
   241fe:	480c      	ldr	r0, [pc, #48]	; (24230 <hal_crypto_hmac_sha2_256_update+0x34>)
   24200:	b510      	push	{r4, lr}
   24202:	7903      	ldrb	r3, [r0, #4]
   24204:	2b01      	cmp	r3, #1
   24206:	d10a      	bne.n	2421e <hal_crypto_hmac_sha2_256_update+0x22>
   24208:	b162      	cbz	r2, 24224 <hal_crypto_hmac_sha2_256_update+0x28>
   2420a:	1e4b      	subs	r3, r1, #1
   2420c:	f5b3 3f80 	cmp.w	r3, #65536	; 0x10000
   24210:	d20b      	bcs.n	2422a <hal_crypto_hmac_sha2_256_update+0x2e>
   24212:	4b08      	ldr	r3, [pc, #32]	; (24234 <hal_crypto_hmac_sha2_256_update+0x38>)
   24214:	699c      	ldr	r4, [r3, #24]
   24216:	460b      	mov	r3, r1
   24218:	2125      	movs	r1, #37	; 0x25
   2421a:	47a0      	blx	r4
   2421c:	bd10      	pop	{r4, pc}
   2421e:	f06f 0004 	mvn.w	r0, #4
   24222:	e7fb      	b.n	2421c <hal_crypto_hmac_sha2_256_update+0x20>
   24224:	f06f 0003 	mvn.w	r0, #3
   24228:	e7f8      	b.n	2421c <hal_crypto_hmac_sha2_256_update+0x20>
   2422a:	f06f 0007 	mvn.w	r0, #7
   2422e:	e7f5      	b.n	2421c <hal_crypto_hmac_sha2_256_update+0x20>
   24230:	20105200 	.word	0x20105200
   24234:	10000130 	.word	0x10000130

00024238 <hal_crypto_hmac_sha2_256_final>:
   24238:	4602      	mov	r2, r0
   2423a:	4808      	ldr	r0, [pc, #32]	; (2425c <hal_crypto_hmac_sha2_256_final+0x24>)
   2423c:	b508      	push	{r3, lr}
   2423e:	7903      	ldrb	r3, [r0, #4]
   24240:	2b01      	cmp	r3, #1
   24242:	d105      	bne.n	24250 <hal_crypto_hmac_sha2_256_final+0x18>
   24244:	b13a      	cbz	r2, 24256 <hal_crypto_hmac_sha2_256_final+0x1e>
   24246:	4b06      	ldr	r3, [pc, #24]	; (24260 <hal_crypto_hmac_sha2_256_final+0x28>)
   24248:	2125      	movs	r1, #37	; 0x25
   2424a:	69db      	ldr	r3, [r3, #28]
   2424c:	4798      	blx	r3
   2424e:	bd08      	pop	{r3, pc}
   24250:	f06f 0004 	mvn.w	r0, #4
   24254:	e7fb      	b.n	2424e <hal_crypto_hmac_sha2_256_final+0x16>
   24256:	f06f 0003 	mvn.w	r0, #3
   2425a:	e7f8      	b.n	2424e <hal_crypto_hmac_sha2_256_final+0x16>
   2425c:	20105200 	.word	0x20105200
   24260:	10000130 	.word	0x10000130

00024264 <hal_crypto_hmac_sha2_256_get_sk_cfg>:
   24264:	b573      	push	{r0, r1, r4, r5, r6, lr}
   24266:	461c      	mov	r4, r3
   24268:	2300      	movs	r3, #0
   2426a:	4615      	mov	r5, r2
   2426c:	9301      	str	r3, [sp, #4]
   2426e:	4b0f      	ldr	r3, [pc, #60]	; (242ac <hal_crypto_hmac_sha2_256_get_sk_cfg+0x48>)
   24270:	791a      	ldrb	r2, [r3, #4]
   24272:	2a01      	cmp	r2, #1
   24274:	d116      	bne.n	242a4 <hal_crypto_hmac_sha2_256_get_sk_cfg+0x40>
   24276:	f001 010f 	and.w	r1, r1, #15
   2427a:	4e0d      	ldr	r6, [pc, #52]	; (242b0 <hal_crypto_hmac_sha2_256_get_sk_cfg+0x4c>)
   2427c:	f004 040f 	and.w	r4, r4, #15
   24280:	ea41 1100 	orr.w	r1, r1, r0, lsl #4
   24284:	f8d6 30a4 	ldr.w	r3, [r6, #164]	; 0xa4
   24288:	a801      	add	r0, sp, #4
   2428a:	b2c9      	uxtb	r1, r1
   2428c:	4798      	blx	r3
   2428e:	a801      	add	r0, sp, #4
   24290:	ea44 1105 	orr.w	r1, r4, r5, lsl #4
   24294:	f8d6 30a4 	ldr.w	r3, [r6, #164]	; 0xa4
   24298:	2202      	movs	r2, #2
   2429a:	b2c9      	uxtb	r1, r1
   2429c:	4798      	blx	r3
   2429e:	9801      	ldr	r0, [sp, #4]
   242a0:	b002      	add	sp, #8
   242a2:	bd70      	pop	{r4, r5, r6, pc}
   242a4:	f06f 0004 	mvn.w	r0, #4
   242a8:	e7fa      	b.n	242a0 <hal_crypto_hmac_sha2_256_get_sk_cfg+0x3c>
   242aa:	bf00      	nop
   242ac:	20105200 	.word	0x20105200
   242b0:	10000130 	.word	0x10000130

000242b4 <hal_crypto_hmac_sha2_256_sk_init>:
   242b4:	4602      	mov	r2, r0
   242b6:	480a      	ldr	r0, [pc, #40]	; (242e0 <hal_crypto_hmac_sha2_256_sk_init+0x2c>)
   242b8:	b538      	push	{r3, r4, r5, lr}
   242ba:	7904      	ldrb	r4, [r0, #4]
   242bc:	460b      	mov	r3, r1
   242be:	2c01      	cmp	r4, #1
   242c0:	d10a      	bne.n	242d8 <hal_crypto_hmac_sha2_256_sk_init+0x24>
   242c2:	4908      	ldr	r1, [pc, #32]	; (242e4 <hal_crypto_hmac_sha2_256_sk_init+0x30>)
   242c4:	f8d1 509c 	ldr.w	r5, [r1, #156]	; 0x9c
   242c8:	2125      	movs	r1, #37	; 0x25
   242ca:	47a8      	blx	r5
   242cc:	b918      	cbnz	r0, 242d6 <hal_crypto_hmac_sha2_256_sk_init+0x22>
   242ce:	4b06      	ldr	r3, [pc, #24]	; (242e8 <hal_crypto_hmac_sha2_256_sk_init+0x34>)
   242d0:	781a      	ldrb	r2, [r3, #0]
   242d2:	b902      	cbnz	r2, 242d6 <hal_crypto_hmac_sha2_256_sk_init+0x22>
   242d4:	701c      	strb	r4, [r3, #0]
   242d6:	bd38      	pop	{r3, r4, r5, pc}
   242d8:	f06f 0004 	mvn.w	r0, #4
   242dc:	e7fb      	b.n	242d6 <hal_crypto_hmac_sha2_256_sk_init+0x22>
   242de:	bf00      	nop
   242e0:	20105200 	.word	0x20105200
   242e4:	10000130 	.word	0x10000130
   242e8:	00018d2c 	.word	0x00018d2c

000242ec <hal_crypto_hmac_sha2_256_sk_final>:
   242ec:	4602      	mov	r2, r0
   242ee:	4807      	ldr	r0, [pc, #28]	; (2430c <hal_crypto_hmac_sha2_256_sk_final+0x20>)
   242f0:	b508      	push	{r3, lr}
   242f2:	7903      	ldrb	r3, [r0, #4]
   242f4:	2b01      	cmp	r3, #1
   242f6:	d105      	bne.n	24304 <hal_crypto_hmac_sha2_256_sk_final+0x18>
   242f8:	4b05      	ldr	r3, [pc, #20]	; (24310 <hal_crypto_hmac_sha2_256_sk_final+0x24>)
   242fa:	2125      	movs	r1, #37	; 0x25
   242fc:	f8d3 30a0 	ldr.w	r3, [r3, #160]	; 0xa0
   24300:	4798      	blx	r3
   24302:	bd08      	pop	{r3, pc}
   24304:	f06f 0004 	mvn.w	r0, #4
   24308:	e7fb      	b.n	24302 <hal_crypto_hmac_sha2_256_sk_final+0x16>
   2430a:	bf00      	nop
   2430c:	20105200 	.word	0x20105200
   24310:	10000130 	.word	0x10000130

00024314 <hal_crypto_aes_sk_init_core>:
   24314:	2300      	movs	r3, #0
   24316:	b5f7      	push	{r0, r1, r2, r4, r5, r6, r7, lr}
   24318:	9301      	str	r3, [sp, #4]
   2431a:	4605      	mov	r5, r0
   2431c:	4b1d      	ldr	r3, [pc, #116]	; (24394 <hal_crypto_aes_sk_init_core+0x80>)
   2431e:	4614      	mov	r4, r2
   24320:	791b      	ldrb	r3, [r3, #4]
   24322:	2b01      	cmp	r3, #1
   24324:	d130      	bne.n	24388 <hal_crypto_aes_sk_init_core+0x74>
   24326:	f022 0308 	bic.w	r3, r2, #8
   2432a:	2b10      	cmp	r3, #16
   2432c:	d001      	beq.n	24332 <hal_crypto_aes_sk_init_core+0x1e>
   2432e:	2a20      	cmp	r2, #32
   24330:	d12d      	bne.n	2438e <hal_crypto_aes_sk_init_core+0x7a>
   24332:	4e19      	ldr	r6, [pc, #100]	; (24398 <hal_crypto_aes_sk_init_core+0x84>)
   24334:	f001 010f 	and.w	r1, r1, #15
   24338:	2201      	movs	r2, #1
   2433a:	a801      	add	r0, sp, #4
   2433c:	f041 0110 	orr.w	r1, r1, #16
   24340:	f8d6 70a4 	ldr.w	r7, [r6, #164]	; 0xa4
   24344:	47b8      	blx	r7
   24346:	2202      	movs	r2, #2
   24348:	f8d6 30a4 	ldr.w	r3, [r6, #164]	; 0xa4
   2434c:	210f      	movs	r1, #15
   2434e:	a801      	add	r0, sp, #4
   24350:	4798      	blx	r3
   24352:	9a01      	ldr	r2, [sp, #4]
   24354:	b952      	cbnz	r2, 2436c <hal_crypto_aes_sk_init_core+0x58>
   24356:	4b11      	ldr	r3, [pc, #68]	; (2439c <hal_crypto_aes_sk_init_core+0x88>)
   24358:	781b      	ldrb	r3, [r3, #0]
   2435a:	b123      	cbz	r3, 24366 <hal_crypto_aes_sk_init_core+0x52>
   2435c:	4b10      	ldr	r3, [pc, #64]	; (243a0 <hal_crypto_aes_sk_init_core+0x8c>)
   2435e:	4611      	mov	r1, r2
   24360:	4810      	ldr	r0, [pc, #64]	; (243a4 <hal_crypto_aes_sk_init_core+0x90>)
   24362:	69db      	ldr	r3, [r3, #28]
   24364:	4798      	blx	r3
   24366:	f04f 30ff 	mov.w	r0, #4294967295	; 0xffffffff
   2436a:	e00b      	b.n	24384 <hal_crypto_aes_sk_init_core+0x70>
   2436c:	f8d6 60ac 	ldr.w	r6, [r6, #172]	; 0xac
   24370:	4623      	mov	r3, r4
   24372:	4629      	mov	r1, r5
   24374:	4807      	ldr	r0, [pc, #28]	; (24394 <hal_crypto_aes_sk_init_core+0x80>)
   24376:	47b0      	blx	r6
   24378:	b920      	cbnz	r0, 24384 <hal_crypto_aes_sk_init_core+0x70>
   2437a:	4b0b      	ldr	r3, [pc, #44]	; (243a8 <hal_crypto_aes_sk_init_core+0x94>)
   2437c:	781a      	ldrb	r2, [r3, #0]
   2437e:	b90a      	cbnz	r2, 24384 <hal_crypto_aes_sk_init_core+0x70>
   24380:	2201      	movs	r2, #1
   24382:	701a      	strb	r2, [r3, #0]
   24384:	b003      	add	sp, #12
   24386:	bdf0      	pop	{r4, r5, r6, r7, pc}
   24388:	f06f 0004 	mvn.w	r0, #4
   2438c:	e7fa      	b.n	24384 <hal_crypto_aes_sk_init_core+0x70>
   2438e:	f06f 0006 	mvn.w	r0, #6
   24392:	e7f7      	b.n	24384 <hal_crypto_aes_sk_init_core+0x70>
   24394:	20105200 	.word	0x20105200
   24398:	10000130 	.word	0x10000130
   2439c:	0001a2b0 	.word	0x0001a2b0
   243a0:	100bc800 	.word	0x100bc800
   243a4:	20101907 	.word	0x20101907
   243a8:	00018d2c 	.word	0x00018d2c

000243ac <hal_crypto_aes_ecb_sk_init>:
   243ac:	460a      	mov	r2, r1
   243ae:	4601      	mov	r1, r0
   243b0:	2020      	movs	r0, #32
   243b2:	b508      	push	{r3, lr}
   243b4:	f7ff ffae 	bl	24314 <hal_crypto_aes_sk_init_core>
   243b8:	bd08      	pop	{r3, pc}
	...

000243bc <hal_crypto_aes_ecb_encrypt>:
   243bc:	4602      	mov	r2, r0
   243be:	4817      	ldr	r0, [pc, #92]	; (2441c <hal_crypto_aes_ecb_encrypt+0x60>)
   243c0:	b530      	push	{r4, r5, lr}
   243c2:	7905      	ldrb	r5, [r0, #4]
   243c4:	b087      	sub	sp, #28
   243c6:	2d01      	cmp	r5, #1
   243c8:	9c0a      	ldr	r4, [sp, #40]	; 0x28
   243ca:	d116      	bne.n	243fa <hal_crypto_aes_ecb_encrypt+0x3e>
   243cc:	b9c3      	cbnz	r3, 24400 <hal_crypto_aes_ecb_encrypt+0x44>
   243ce:	b1d4      	cbz	r4, 24406 <hal_crypto_aes_ecb_encrypt+0x4a>
   243d0:	b1ca      	cbz	r2, 24406 <hal_crypto_aes_ecb_encrypt+0x4a>
   243d2:	b1d9      	cbz	r1, 2440c <hal_crypto_aes_ecb_encrypt+0x50>
   243d4:	f5b1 3f80 	cmp.w	r1, #65536	; 0x10000
   243d8:	d81a      	bhi.n	24410 <hal_crypto_aes_ecb_encrypt+0x54>
   243da:	f011 030f 	ands.w	r3, r1, #15
   243de:	d11a      	bne.n	24416 <hal_crypto_aes_ecb_encrypt+0x5a>
   243e0:	e9cd 4304 	strd	r4, r3, [sp, #16]
   243e4:	e9cd 3302 	strd	r3, r3, [sp, #8]
   243e8:	e9cd 3300 	strd	r3, r3, [sp]
   243ec:	4b0c      	ldr	r3, [pc, #48]	; (24420 <hal_crypto_aes_ecb_encrypt+0x64>)
   243ee:	6a5c      	ldr	r4, [r3, #36]	; 0x24
   243f0:	460b      	mov	r3, r1
   243f2:	2120      	movs	r1, #32
   243f4:	47a0      	blx	r4
   243f6:	b007      	add	sp, #28
   243f8:	bd30      	pop	{r4, r5, pc}
   243fa:	f06f 0004 	mvn.w	r0, #4
   243fe:	e7fa      	b.n	243f6 <hal_crypto_aes_ecb_encrypt+0x3a>
   24400:	f06f 0008 	mvn.w	r0, #8
   24404:	e7f7      	b.n	243f6 <hal_crypto_aes_ecb_encrypt+0x3a>
   24406:	f06f 0003 	mvn.w	r0, #3
   2440a:	e7f4      	b.n	243f6 <hal_crypto_aes_ecb_encrypt+0x3a>
   2440c:	4608      	mov	r0, r1
   2440e:	e7f2      	b.n	243f6 <hal_crypto_aes_ecb_encrypt+0x3a>
   24410:	f06f 0007 	mvn.w	r0, #7
   24414:	e7ef      	b.n	243f6 <hal_crypto_aes_ecb_encrypt+0x3a>
   24416:	f06f 000d 	mvn.w	r0, #13
   2441a:	e7ec      	b.n	243f6 <hal_crypto_aes_ecb_encrypt+0x3a>
   2441c:	20105200 	.word	0x20105200
   24420:	10000130 	.word	0x10000130

00024424 <hal_crypto_aes_ecb_decrypt>:
   24424:	4602      	mov	r2, r0
   24426:	4817      	ldr	r0, [pc, #92]	; (24484 <hal_crypto_aes_ecb_decrypt+0x60>)
   24428:	b530      	push	{r4, r5, lr}
   2442a:	7905      	ldrb	r5, [r0, #4]
   2442c:	b087      	sub	sp, #28
   2442e:	2d01      	cmp	r5, #1
   24430:	9c0a      	ldr	r4, [sp, #40]	; 0x28
   24432:	d116      	bne.n	24462 <hal_crypto_aes_ecb_decrypt+0x3e>
   24434:	b9c3      	cbnz	r3, 24468 <hal_crypto_aes_ecb_decrypt+0x44>
   24436:	b1d4      	cbz	r4, 2446e <hal_crypto_aes_ecb_decrypt+0x4a>
   24438:	b1ca      	cbz	r2, 2446e <hal_crypto_aes_ecb_decrypt+0x4a>
   2443a:	b1d9      	cbz	r1, 24474 <hal_crypto_aes_ecb_decrypt+0x50>
   2443c:	f5b1 3f80 	cmp.w	r1, #65536	; 0x10000
   24440:	d81a      	bhi.n	24478 <hal_crypto_aes_ecb_decrypt+0x54>
   24442:	f011 030f 	ands.w	r3, r1, #15
   24446:	d11a      	bne.n	2447e <hal_crypto_aes_ecb_decrypt+0x5a>
   24448:	e9cd 4304 	strd	r4, r3, [sp, #16]
   2444c:	e9cd 3302 	strd	r3, r3, [sp, #8]
   24450:	e9cd 3300 	strd	r3, r3, [sp]
   24454:	4b0c      	ldr	r3, [pc, #48]	; (24488 <hal_crypto_aes_ecb_decrypt+0x64>)
   24456:	6a9c      	ldr	r4, [r3, #40]	; 0x28
   24458:	460b      	mov	r3, r1
   2445a:	2120      	movs	r1, #32
   2445c:	47a0      	blx	r4
   2445e:	b007      	add	sp, #28
   24460:	bd30      	pop	{r4, r5, pc}
   24462:	f06f 0004 	mvn.w	r0, #4
   24466:	e7fa      	b.n	2445e <hal_crypto_aes_ecb_decrypt+0x3a>
   24468:	f06f 0008 	mvn.w	r0, #8
   2446c:	e7f7      	b.n	2445e <hal_crypto_aes_ecb_decrypt+0x3a>
   2446e:	f06f 0003 	mvn.w	r0, #3
   24472:	e7f4      	b.n	2445e <hal_crypto_aes_ecb_decrypt+0x3a>
   24474:	4608      	mov	r0, r1
   24476:	e7f2      	b.n	2445e <hal_crypto_aes_ecb_decrypt+0x3a>
   24478:	f06f 0007 	mvn.w	r0, #7
   2447c:	e7ef      	b.n	2445e <hal_crypto_aes_ecb_decrypt+0x3a>
   2447e:	f06f 000d 	mvn.w	r0, #13
   24482:	e7ec      	b.n	2445e <hal_crypto_aes_ecb_decrypt+0x3a>
   24484:	20105200 	.word	0x20105200
   24488:	10000130 	.word	0x10000130

0002448c <hal_crypto_aes_gcm_sk_init>:
   2448c:	460a      	mov	r2, r1
   2448e:	4601      	mov	r1, r0
   24490:	2028      	movs	r0, #40	; 0x28
   24492:	b508      	push	{r3, lr}
   24494:	f7ff ff3e 	bl	24314 <hal_crypto_aes_sk_init_core>
   24498:	bd08      	pop	{r3, pc}
	...

0002449c <hal_crypto_aes_gcm_decrypt>:
   2449c:	b5f0      	push	{r4, r5, r6, r7, lr}
   2449e:	4f1f      	ldr	r7, [pc, #124]	; (2451c <hal_crypto_aes_gcm_decrypt+0x80>)
   244a0:	b087      	sub	sp, #28
   244a2:	4604      	mov	r4, r0
   244a4:	793f      	ldrb	r7, [r7, #4]
   244a6:	9e0e      	ldr	r6, [sp, #56]	; 0x38
   244a8:	2f01      	cmp	r7, #1
   244aa:	e9dd 050c 	ldrd	r0, r5, [sp, #48]	; 0x30
   244ae:	d120      	bne.n	244f2 <hal_crypto_aes_gcm_decrypt+0x56>
   244b0:	b342      	cbz	r2, 24504 <hal_crypto_aes_gcm_decrypt+0x68>
   244b2:	ea42 0703 	orr.w	r7, r2, r3
   244b6:	06ff      	lsls	r7, r7, #27
   244b8:	d11e      	bne.n	244f8 <hal_crypto_aes_gcm_decrypt+0x5c>
   244ba:	f5b0 7ff8 	cmp.w	r0, #496	; 0x1f0
   244be:	d81e      	bhi.n	244fe <hal_crypto_aes_gcm_decrypt+0x62>
   244c0:	b306      	cbz	r6, 24504 <hal_crypto_aes_gcm_decrypt+0x68>
   244c2:	b1fd      	cbz	r5, 24504 <hal_crypto_aes_gcm_decrypt+0x68>
   244c4:	b1f4      	cbz	r4, 24504 <hal_crypto_aes_gcm_decrypt+0x68>
   244c6:	b301      	cbz	r1, 2450a <hal_crypto_aes_gcm_decrypt+0x6e>
   244c8:	f5b1 3f80 	cmp.w	r1, #65536	; 0x10000
   244cc:	d81f      	bhi.n	2450e <hal_crypto_aes_gcm_decrypt+0x72>
   244ce:	070f      	lsls	r7, r1, #28
   244d0:	d120      	bne.n	24514 <hal_crypto_aes_gcm_decrypt+0x78>
   244d2:	e9cd 3002 	strd	r3, r0, [sp, #8]
   244d6:	2300      	movs	r3, #0
   244d8:	4810      	ldr	r0, [pc, #64]	; (2451c <hal_crypto_aes_gcm_decrypt+0x80>)
   244da:	e9cd 2300 	strd	r2, r3, [sp]
   244de:	4b10      	ldr	r3, [pc, #64]	; (24520 <hal_crypto_aes_gcm_decrypt+0x84>)
   244e0:	4622      	mov	r2, r4
   244e2:	e9cd 5604 	strd	r5, r6, [sp, #16]
   244e6:	6a9d      	ldr	r5, [r3, #40]	; 0x28
   244e8:	460b      	mov	r3, r1
   244ea:	2128      	movs	r1, #40	; 0x28
   244ec:	47a8      	blx	r5
   244ee:	b007      	add	sp, #28
   244f0:	bdf0      	pop	{r4, r5, r6, r7, pc}
   244f2:	f06f 0004 	mvn.w	r0, #4
   244f6:	e7fa      	b.n	244ee <hal_crypto_aes_gcm_decrypt+0x52>
   244f8:	f06f 0005 	mvn.w	r0, #5
   244fc:	e7f7      	b.n	244ee <hal_crypto_aes_gcm_decrypt+0x52>
   244fe:	f06f 0009 	mvn.w	r0, #9
   24502:	e7f4      	b.n	244ee <hal_crypto_aes_gcm_decrypt+0x52>
   24504:	f06f 0003 	mvn.w	r0, #3
   24508:	e7f1      	b.n	244ee <hal_crypto_aes_gcm_decrypt+0x52>
   2450a:	4608      	mov	r0, r1
   2450c:	e7ef      	b.n	244ee <hal_crypto_aes_gcm_decrypt+0x52>
   2450e:	f06f 0007 	mvn.w	r0, #7
   24512:	e7ec      	b.n	244ee <hal_crypto_aes_gcm_decrypt+0x52>
   24514:	f06f 000d 	mvn.w	r0, #13
   24518:	e7e9      	b.n	244ee <hal_crypto_aes_gcm_decrypt+0x52>
   2451a:	bf00      	nop
   2451c:	20105200 	.word	0x20105200
   24520:	10000130 	.word	0x10000130

00024524 <hal_crypto_key_storage_writekey>:
   24524:	b570      	push	{r4, r5, r6, lr}
   24526:	4d0c      	ldr	r5, [pc, #48]	; (24558 <hal_crypto_key_storage_writekey+0x34>)
   24528:	4613      	mov	r3, r2
   2452a:	792c      	ldrb	r4, [r5, #4]
   2452c:	2c01      	cmp	r4, #1
   2452e:	d10d      	bne.n	2454c <hal_crypto_key_storage_writekey+0x28>
   24530:	b178      	cbz	r0, 24552 <hal_crypto_key_storage_writekey+0x2e>
   24532:	4a0a      	ldr	r2, [pc, #40]	; (2455c <hal_crypto_key_storage_writekey+0x38>)
   24534:	f8d2 6088 	ldr.w	r6, [r2, #136]	; 0x88
   24538:	460a      	mov	r2, r1
   2453a:	4601      	mov	r1, r0
   2453c:	4628      	mov	r0, r5
   2453e:	47b0      	blx	r6
   24540:	b918      	cbnz	r0, 2454a <hal_crypto_key_storage_writekey+0x26>
   24542:	4b07      	ldr	r3, [pc, #28]	; (24560 <hal_crypto_key_storage_writekey+0x3c>)
   24544:	781a      	ldrb	r2, [r3, #0]
   24546:	b902      	cbnz	r2, 2454a <hal_crypto_key_storage_writekey+0x26>
   24548:	701c      	strb	r4, [r3, #0]
   2454a:	bd70      	pop	{r4, r5, r6, pc}
   2454c:	f06f 0004 	mvn.w	r0, #4
   24550:	e7fb      	b.n	2454a <hal_crypto_key_storage_writekey+0x26>
   24552:	f06f 0003 	mvn.w	r0, #3
   24556:	e7f8      	b.n	2454a <hal_crypto_key_storage_writekey+0x26>
   24558:	20105200 	.word	0x20105200
   2455c:	10000130 	.word	0x10000130
   24560:	00018d2c 	.word	0x00018d2c

00024564 <hal_crypto_crc_setting>:
   24564:	b57f      	push	{r0, r1, r2, r3, r4, r5, r6, lr}
   24566:	4c0c      	ldr	r4, [pc, #48]	; (24598 <hal_crypto_crc_setting+0x34>)
   24568:	7925      	ldrb	r5, [r4, #4]
   2456a:	2d01      	cmp	r5, #1
   2456c:	d110      	bne.n	24590 <hal_crypto_crc_setting+0x2c>
   2456e:	4d0b      	ldr	r5, [pc, #44]	; (2459c <hal_crypto_crc_setting+0x38>)
   24570:	2600      	movs	r6, #0
   24572:	602e      	str	r6, [r5, #0]
   24574:	9d09      	ldr	r5, [sp, #36]	; 0x24
   24576:	9502      	str	r5, [sp, #8]
   24578:	9d08      	ldr	r5, [sp, #32]
   2457a:	e9cd 3500 	strd	r3, r5, [sp]
   2457e:	4b08      	ldr	r3, [pc, #32]	; (245a0 <hal_crypto_crc_setting+0x3c>)
   24580:	6d9d      	ldr	r5, [r3, #88]	; 0x58
   24582:	4613      	mov	r3, r2
   24584:	460a      	mov	r2, r1
   24586:	4601      	mov	r1, r0
   24588:	4620      	mov	r0, r4
   2458a:	47a8      	blx	r5
   2458c:	b004      	add	sp, #16
   2458e:	bd70      	pop	{r4, r5, r6, pc}
   24590:	f06f 0004 	mvn.w	r0, #4
   24594:	e7fa      	b.n	2458c <hal_crypto_crc_setting+0x28>
   24596:	bf00      	nop
   24598:	20105200 	.word	0x20105200
   2459c:	00018d20 	.word	0x00018d20
   245a0:	10000130 	.word	0x10000130

000245a4 <hal_crypto_crc_cmd>:
   245a4:	b5f8      	push	{r3, r4, r5, r6, r7, lr}
   245a6:	4e12      	ldr	r6, [pc, #72]	; (245f0 <hal_crypto_crc_cmd+0x4c>)
   245a8:	4615      	mov	r5, r2
   245aa:	7933      	ldrb	r3, [r6, #4]
   245ac:	2b01      	cmp	r3, #1
   245ae:	d113      	bne.n	245d8 <hal_crypto_crc_cmd+0x34>
   245b0:	b1aa      	cbz	r2, 245de <hal_crypto_crc_cmd+0x3a>
   245b2:	b1a0      	cbz	r0, 245de <hal_crypto_crc_cmd+0x3a>
   245b4:	b1b1      	cbz	r1, 245e4 <hal_crypto_crc_cmd+0x40>
   245b6:	f5b1 3f80 	cmp.w	r1, #65536	; 0x10000
   245ba:	d215      	bcs.n	245e8 <hal_crypto_crc_cmd+0x44>
   245bc:	4f0d      	ldr	r7, [pc, #52]	; (245f4 <hal_crypto_crc_cmd+0x50>)
   245be:	460a      	mov	r2, r1
   245c0:	4601      	mov	r1, r0
   245c2:	4630      	mov	r0, r6
   245c4:	6dfb      	ldr	r3, [r7, #92]	; 0x5c
   245c6:	4798      	blx	r3
   245c8:	4604      	mov	r4, r0
   245ca:	b918      	cbnz	r0, 245d4 <hal_crypto_crc_cmd+0x30>
   245cc:	6e7b      	ldr	r3, [r7, #100]	; 0x64
   245ce:	4630      	mov	r0, r6
   245d0:	4798      	blx	r3
   245d2:	6028      	str	r0, [r5, #0]
   245d4:	4620      	mov	r0, r4
   245d6:	bdf8      	pop	{r3, r4, r5, r6, r7, pc}
   245d8:	f06f 0404 	mvn.w	r4, #4
   245dc:	e7fa      	b.n	245d4 <hal_crypto_crc_cmd+0x30>
   245de:	f06f 0403 	mvn.w	r4, #3
   245e2:	e7f7      	b.n	245d4 <hal_crypto_crc_cmd+0x30>
   245e4:	460c      	mov	r4, r1
   245e6:	e7f5      	b.n	245d4 <hal_crypto_crc_cmd+0x30>
   245e8:	f06f 0407 	mvn.w	r4, #7
   245ec:	e7f2      	b.n	245d4 <hal_crypto_crc_cmd+0x30>
   245ee:	bf00      	nop
   245f0:	20105200 	.word	0x20105200
   245f4:	10000130 	.word	0x10000130

000245f8 <hal_crypto_crc32_dma>:
   245f8:	e92d 41f3 	stmdb	sp!, {r0, r1, r4, r5, r6, r7, r8, lr}
   245fc:	f8df 8098 	ldr.w	r8, [pc, #152]	; 24698 <hal_crypto_crc32_dma+0xa0>
   24600:	4615      	mov	r5, r2
   24602:	f898 3004 	ldrb.w	r3, [r8, #4]
   24606:	2b01      	cmp	r3, #1
   24608:	d136      	bne.n	24678 <hal_crypto_crc32_dma+0x80>
   2460a:	2a00      	cmp	r2, #0
   2460c:	d037      	beq.n	2467e <hal_crypto_crc32_dma+0x86>
   2460e:	2800      	cmp	r0, #0
   24610:	d035      	beq.n	2467e <hal_crypto_crc32_dma+0x86>
   24612:	2900      	cmp	r1, #0
   24614:	d036      	beq.n	24684 <hal_crypto_crc32_dma+0x8c>
   24616:	f5b1 3f80 	cmp.w	r1, #65536	; 0x10000
   2461a:	d235      	bcs.n	24688 <hal_crypto_crc32_dma+0x90>
   2461c:	2300      	movs	r3, #0
   2461e:	4f1c      	ldr	r7, [pc, #112]	; (24690 <hal_crypto_crc32_dma+0x98>)
   24620:	4e1c      	ldr	r6, [pc, #112]	; (24694 <hal_crypto_crc32_dma+0x9c>)
   24622:	460a      	mov	r2, r1
   24624:	603b      	str	r3, [r7, #0]
   24626:	4601      	mov	r1, r0
   24628:	6ef3      	ldr	r3, [r6, #108]	; 0x6c
   2462a:	4640      	mov	r0, r8
   2462c:	4798      	blx	r3
   2462e:	4604      	mov	r4, r0
   24630:	b930      	cbnz	r0, 24640 <hal_crypto_crc32_dma+0x48>
   24632:	f898 3005 	ldrb.w	r3, [r8, #5]
   24636:	b93b      	cbnz	r3, 24648 <hal_crypto_crc32_dma+0x50>
   24638:	6e73      	ldr	r3, [r6, #100]	; 0x64
   2463a:	4817      	ldr	r0, [pc, #92]	; (24698 <hal_crypto_crc32_dma+0xa0>)
   2463c:	4798      	blx	r3
   2463e:	6028      	str	r0, [r5, #0]
   24640:	4620      	mov	r0, r4
   24642:	b002      	add	sp, #8
   24644:	e8bd 81f0 	ldmia.w	sp!, {r4, r5, r6, r7, r8, pc}
   24648:	f242 7310 	movw	r3, #10000	; 0x2710
   2464c:	683a      	ldr	r2, [r7, #0]
   2464e:	2a00      	cmp	r2, #0
   24650:	d1f2      	bne.n	24638 <hal_crypto_crc32_dma+0x40>
   24652:	3b01      	subs	r3, #1
   24654:	d1fa      	bne.n	2464c <hal_crypto_crc32_dma+0x54>
   24656:	4b11      	ldr	r3, [pc, #68]	; (2469c <hal_crypto_crc32_dma+0xa4>)
   24658:	f8d3 3118 	ldr.w	r3, [r3, #280]	; 0x118
   2465c:	9301      	str	r3, [sp, #4]
   2465e:	4b10      	ldr	r3, [pc, #64]	; (246a0 <hal_crypto_crc32_dma+0xa8>)
   24660:	681b      	ldr	r3, [r3, #0]
   24662:	681b      	ldr	r3, [r3, #0]
   24664:	05db      	lsls	r3, r3, #23
   24666:	d504      	bpl.n	24672 <hal_crypto_crc32_dma+0x7a>
   24668:	4b0e      	ldr	r3, [pc, #56]	; (246a4 <hal_crypto_crc32_dma+0xac>)
   2466a:	9901      	ldr	r1, [sp, #4]
   2466c:	480e      	ldr	r0, [pc, #56]	; (246a8 <hal_crypto_crc32_dma+0xb0>)
   2466e:	69db      	ldr	r3, [r3, #28]
   24670:	4798      	blx	r3
   24672:	f04f 34ff 	mov.w	r4, #4294967295	; 0xffffffff
   24676:	e7e3      	b.n	24640 <hal_crypto_crc32_dma+0x48>
   24678:	f06f 0404 	mvn.w	r4, #4
   2467c:	e7e0      	b.n	24640 <hal_crypto_crc32_dma+0x48>
   2467e:	f06f 0403 	mvn.w	r4, #3
   24682:	e7dd      	b.n	24640 <hal_crypto_crc32_dma+0x48>
   24684:	460c      	mov	r4, r1
   24686:	e7db      	b.n	24640 <hal_crypto_crc32_dma+0x48>
   24688:	f06f 0407 	mvn.w	r4, #7
   2468c:	e7d8      	b.n	24640 <hal_crypto_crc32_dma+0x48>
   2468e:	bf00      	nop
   24690:	00018d20 	.word	0x00018d20
   24694:	10000130 	.word	0x10000130
   24698:	20105200 	.word	0x20105200
   2469c:	50070000 	.word	0x50070000
   246a0:	10000e10 	.word	0x10000e10
   246a4:	100bc800 	.word	0x100bc800
   246a8:	2010191e 	.word	0x2010191e

000246ac <hal_eddsa_sha2_512_init>:
   246ac:	b508      	push	{r3, lr}
   246ae:	b138      	cbz	r0, 246c0 <hal_eddsa_sha2_512_init+0x14>
   246b0:	7a83      	ldrb	r3, [r0, #10]
   246b2:	b93b      	cbnz	r3, 246c4 <hal_eddsa_sha2_512_init+0x18>
   246b4:	7a43      	ldrb	r3, [r0, #9]
   246b6:	2b01      	cmp	r3, #1
   246b8:	d107      	bne.n	246ca <hal_eddsa_sha2_512_init+0x1e>
   246ba:	f7ff fd35 	bl	24128 <hal_crypto_sha2_512_init>
   246be:	bd08      	pop	{r3, pc}
   246c0:	2003      	movs	r0, #3
   246c2:	e7fc      	b.n	246be <hal_eddsa_sha2_512_init+0x12>
   246c4:	f06f 0009 	mvn.w	r0, #9
   246c8:	e7f9      	b.n	246be <hal_eddsa_sha2_512_init+0x12>
   246ca:	f06f 000a 	mvn.w	r0, #10
   246ce:	e7f6      	b.n	246be <hal_eddsa_sha2_512_init+0x12>

000246d0 <hal_eddsa_sha2_512_update>:
   246d0:	b508      	push	{r3, lr}
   246d2:	4603      	mov	r3, r0
   246d4:	4608      	mov	r0, r1
   246d6:	4611      	mov	r1, r2
   246d8:	b13b      	cbz	r3, 246ea <hal_eddsa_sha2_512_update+0x1a>
   246da:	7a9a      	ldrb	r2, [r3, #10]
   246dc:	b93a      	cbnz	r2, 246ee <hal_eddsa_sha2_512_update+0x1e>
   246de:	7a5b      	ldrb	r3, [r3, #9]
   246e0:	2b01      	cmp	r3, #1
   246e2:	d107      	bne.n	246f4 <hal_eddsa_sha2_512_update+0x24>
   246e4:	f7ff fd34 	bl	24150 <hal_crypto_sha2_512_update>
   246e8:	bd08      	pop	{r3, pc}
   246ea:	2003      	movs	r0, #3
   246ec:	e7fc      	b.n	246e8 <hal_eddsa_sha2_512_update+0x18>
   246ee:	f06f 0009 	mvn.w	r0, #9
   246f2:	e7f9      	b.n	246e8 <hal_eddsa_sha2_512_update+0x18>
   246f4:	f06f 000a 	mvn.w	r0, #10
   246f8:	e7f6      	b.n	246e8 <hal_eddsa_sha2_512_update+0x18>

000246fa <hal_eddsa_sha2_512_final>:
   246fa:	b508      	push	{r3, lr}
   246fc:	4603      	mov	r3, r0
   246fe:	4608      	mov	r0, r1
   24700:	b13b      	cbz	r3, 24712 <hal_eddsa_sha2_512_final+0x18>
   24702:	7a9a      	ldrb	r2, [r3, #10]
   24704:	b93a      	cbnz	r2, 24716 <hal_eddsa_sha2_512_final+0x1c>
   24706:	7a5b      	ldrb	r3, [r3, #9]
   24708:	2b01      	cmp	r3, #1
   2470a:	d107      	bne.n	2471c <hal_eddsa_sha2_512_final+0x22>
   2470c:	f7ff fd3e 	bl	2418c <hal_crypto_sha2_512_final>
   24710:	bd08      	pop	{r3, pc}
   24712:	2003      	movs	r0, #3
   24714:	e7fc      	b.n	24710 <hal_eddsa_sha2_512_final+0x16>
   24716:	f06f 0009 	mvn.w	r0, #9
   2471a:	e7f9      	b.n	24710 <hal_eddsa_sha2_512_final+0x16>
   2471c:	f06f 000a 	mvn.w	r0, #10
   24720:	e7f6      	b.n	24710 <hal_eddsa_sha2_512_final+0x16>
	...

00024724 <hal_eddsa_hook_hash_op_f>:
   24724:	4603      	mov	r3, r0
   24726:	480b      	ldr	r0, [pc, #44]	; (24754 <hal_eddsa_hook_hash_op_f+0x30>)
   24728:	b570      	push	{r4, r5, r6, lr}
   2472a:	4614      	mov	r4, r2
   2472c:	7a02      	ldrb	r2, [r0, #8]
   2472e:	460e      	mov	r6, r1
   24730:	2a01      	cmp	r2, #1
   24732:	d10d      	bne.n	24750 <hal_eddsa_hook_hash_op_f+0x2c>
   24734:	4d08      	ldr	r5, [pc, #32]	; (24758 <hal_eddsa_hook_hash_op_f+0x34>)
   24736:	4619      	mov	r1, r3
   24738:	6f2a      	ldr	r2, [r5, #112]	; 0x70
   2473a:	4790      	blx	r2
   2473c:	6f6b      	ldr	r3, [r5, #116]	; 0x74
   2473e:	4631      	mov	r1, r6
   24740:	4804      	ldr	r0, [pc, #16]	; (24754 <hal_eddsa_hook_hash_op_f+0x30>)
   24742:	4798      	blx	r3
   24744:	4803      	ldr	r0, [pc, #12]	; (24754 <hal_eddsa_hook_hash_op_f+0x30>)
   24746:	6fab      	ldr	r3, [r5, #120]	; 0x78
   24748:	4621      	mov	r1, r4
   2474a:	4798      	blx	r3
   2474c:	2000      	movs	r0, #0
   2474e:	bd70      	pop	{r4, r5, r6, pc}
   24750:	2006      	movs	r0, #6
   24752:	e7fc      	b.n	2474e <hal_eddsa_hook_hash_op_f+0x2a>
   24754:	00018d40 	.word	0x00018d40
   24758:	100002f0 	.word	0x100002f0

0002475c <hal_eddsa_engine_init>:
   2475c:	b538      	push	{r3, r4, r5, lr}
   2475e:	4c1c      	ldr	r4, [pc, #112]	; (247d0 <hal_eddsa_engine_init+0x74>)
   24760:	4605      	mov	r5, r0
   24762:	f44f 7210 	mov.w	r2, #576	; 0x240
   24766:	2100      	movs	r1, #0
   24768:	4620      	mov	r0, r4
   2476a:	f008 f855 	bl	2c818 <__wrap_memset>
   2476e:	4b19      	ldr	r3, [pc, #100]	; (247d4 <hal_eddsa_engine_init+0x78>)
   24770:	6023      	str	r3, [r4, #0]
   24772:	b9ad      	cbnz	r5, 247a0 <hal_eddsa_engine_init+0x44>
   24774:	f7ff fb76 	bl	23e64 <hal_crypto_engine_chk_init>
   24778:	2801      	cmp	r0, #1
   2477a:	d00d      	beq.n	24798 <hal_eddsa_engine_init+0x3c>
   2477c:	f7ff fbae 	bl	23edc <hal_crypto_engine_init>
   24780:	b150      	cbz	r0, 24798 <hal_eddsa_engine_init+0x3c>
   24782:	4b15      	ldr	r3, [pc, #84]	; (247d8 <hal_eddsa_engine_init+0x7c>)
   24784:	681b      	ldr	r3, [r3, #0]
   24786:	681b      	ldr	r3, [r3, #0]
   24788:	059b      	lsls	r3, r3, #22
   2478a:	d503      	bpl.n	24794 <hal_eddsa_engine_init+0x38>
   2478c:	4b13      	ldr	r3, [pc, #76]	; (247dc <hal_eddsa_engine_init+0x80>)
   2478e:	4814      	ldr	r0, [pc, #80]	; (247e0 <hal_eddsa_engine_init+0x84>)
   24790:	69db      	ldr	r3, [r3, #28]
   24792:	4798      	blx	r3
   24794:	2505      	movs	r5, #5
   24796:	e018      	b.n	247ca <hal_eddsa_engine_init+0x6e>
   24798:	2301      	movs	r3, #1
   2479a:	7263      	strb	r3, [r4, #9]
   2479c:	2300      	movs	r3, #0
   2479e:	6063      	str	r3, [r4, #4]
   247a0:	2101      	movs	r1, #1
   247a2:	2000      	movs	r0, #0
   247a4:	72a5      	strb	r5, [r4, #10]
   247a6:	f008 f951 	bl	2ca4c <hal_sys_peripheral_en>
   247aa:	2301      	movs	r3, #1
   247ac:	4a0d      	ldr	r2, [pc, #52]	; (247e4 <hal_eddsa_engine_init+0x88>)
   247ae:	490e      	ldr	r1, [pc, #56]	; (247e8 <hal_eddsa_engine_init+0x8c>)
   247b0:	480e      	ldr	r0, [pc, #56]	; (247ec <hal_eddsa_engine_init+0x90>)
   247b2:	7223      	strb	r3, [r4, #8]
   247b4:	f7ff ffb6 	bl	24724 <hal_eddsa_hook_hash_op_f>
   247b8:	4b0d      	ldr	r3, [pc, #52]	; (247f0 <hal_eddsa_engine_init+0x94>)
   247ba:	4605      	mov	r5, r0
   247bc:	2100      	movs	r1, #0
   247be:	4804      	ldr	r0, [pc, #16]	; (247d0 <hal_eddsa_engine_init+0x74>)
   247c0:	6fdb      	ldr	r3, [r3, #124]	; 0x7c
   247c2:	4798      	blx	r3
   247c4:	2300      	movs	r3, #0
   247c6:	f8c4 31f0 	str.w	r3, [r4, #496]	; 0x1f0
   247ca:	4628      	mov	r0, r5
   247cc:	bd38      	pop	{r3, r4, r5, pc}
   247ce:	bf00      	nop
   247d0:	00018d40 	.word	0x00018d40
   247d4:	50046800 	.word	0x50046800
   247d8:	10000e10 	.word	0x10000e10
   247dc:	100bc800 	.word	0x100bc800
   247e0:	20101968 	.word	0x20101968
   247e4:	000246fb 	.word	0x000246fb
   247e8:	000246d1 	.word	0x000246d1
   247ec:	000246ad 	.word	0x000246ad
   247f0:	100002f0 	.word	0x100002f0

000247f4 <hal_eddsa_sign_verify>:
   247f4:	b570      	push	{r4, r5, r6, lr}
   247f6:	4c1b      	ldr	r4, [pc, #108]	; (24864 <hal_eddsa_sign_verify+0x70>)
   247f8:	4e1b      	ldr	r6, [pc, #108]	; (24868 <hal_eddsa_sign_verify+0x74>)
   247fa:	61e3      	str	r3, [r4, #28]
   247fc:	68b3      	ldr	r3, [r6, #8]
   247fe:	6121      	str	r1, [r4, #16]
   24800:	681b      	ldr	r3, [r3, #0]
   24802:	e9c4 0205 	strd	r0, r2, [r4, #20]
   24806:	0598      	lsls	r0, r3, #22
   24808:	d519      	bpl.n	2483e <hal_eddsa_sign_verify+0x4a>
   2480a:	4b18      	ldr	r3, [pc, #96]	; (2486c <hal_eddsa_sign_verify+0x78>)
   2480c:	4611      	mov	r1, r2
   2480e:	4818      	ldr	r0, [pc, #96]	; (24870 <hal_eddsa_sign_verify+0x7c>)
   24810:	69dd      	ldr	r5, [r3, #28]
   24812:	47a8      	blx	r5
   24814:	68b3      	ldr	r3, [r6, #8]
   24816:	681b      	ldr	r3, [r3, #0]
   24818:	0599      	lsls	r1, r3, #22
   2481a:	d510      	bpl.n	2483e <hal_eddsa_sign_verify+0x4a>
   2481c:	6961      	ldr	r1, [r4, #20]
   2481e:	4815      	ldr	r0, [pc, #84]	; (24874 <hal_eddsa_sign_verify+0x80>)
   24820:	47a8      	blx	r5
   24822:	68b3      	ldr	r3, [r6, #8]
   24824:	681b      	ldr	r3, [r3, #0]
   24826:	059a      	lsls	r2, r3, #22
   24828:	d509      	bpl.n	2483e <hal_eddsa_sign_verify+0x4a>
   2482a:	6921      	ldr	r1, [r4, #16]
   2482c:	4812      	ldr	r0, [pc, #72]	; (24878 <hal_eddsa_sign_verify+0x84>)
   2482e:	47a8      	blx	r5
   24830:	68b3      	ldr	r3, [r6, #8]
   24832:	681b      	ldr	r3, [r3, #0]
   24834:	059b      	lsls	r3, r3, #22
   24836:	d502      	bpl.n	2483e <hal_eddsa_sign_verify+0x4a>
   24838:	69e1      	ldr	r1, [r4, #28]
   2483a:	4810      	ldr	r0, [pc, #64]	; (2487c <hal_eddsa_sign_verify+0x88>)
